 iconv

 Timestamp is 5759643b (Thu Jun 09 14:42:35 2016)

 Preferred load address is 0000000180000000

 Start         Length     Name                   Class
 0001:00000000 00000037H .text$di                CODE
 0001:00000040 00022143H .text$mn                CODE
 0001:00022190 00000278H .text$x                 CODE
 0001:00022410 00000003H .text$yd                CODE
 0002:00000000 00000228H .idata$5                DATA
 0002:00000228 00000008H .CRT$XCA                DATA
 0002:00000230 00000020H .CRT$XCU                DATA
 0002:00000250 00000008H .CRT$XCZ                DATA
 0002:00000258 00000008H .CRT$XIA                DATA
 0002:00000260 00000020H .CRT$XIC                DATA
 0002:00000280 00000008H .CRT$XIZ                DATA
 0002:00000288 00000008H .CRT$XPA                DATA
 0002:00000290 00000010H .CRT$XPX                DATA
 0002:000002a0 00000008H .CRT$XPXA               DATA
 0002:000002a8 00000008H .CRT$XPZ                DATA
 0002:000002b0 00000008H .CRT$XTA                DATA
 0002:000002b8 00000008H .CRT$XTZ                DATA
 0002:000002c0 000e3be0H .rdata                  DATA
 0002:000e3ea0 0000007cH .rdata$debug            DATA
 0002:000e3f20 0000016cH .rdata$r                DATA
 0002:000e4090 00000008H .rtc$IAA                DATA
 0002:000e4098 00000008H .rtc$IZZ                DATA
 0002:000e40a0 00000008H .rtc$TAA                DATA
 0002:000e40a8 00000008H .rtc$TZZ                DATA
 0002:000e40b0 00000f44H .xdata                  DATA
 0002:000e4ff8 00000084H .xdata$x                DATA
 0002:000e507c 00000020H .didat$2                DATA
 0002:000e509c 00000020H .didat$3                DATA
 0002:000e50c0 00000128H .didat$4                DATA
 0002:000e51e8 00000970H .didat$6                DATA
 0002:000e5b58 00000128H .didat$7                DATA
 0002:000e5c80 00000051H .edata                  DATA
 0002:000e5cd4 00000014H .idata$2                DATA
 0002:000e5ce8 00000014H .idata$3                DATA
 0002:000e5d00 00000228H .idata$4                DATA
 0002:000e5f28 00000500H .idata$6                DATA
 0003:00000000 00001878H .data                   DATA
 0003:00001878 00000070H .data$r                 DATA
 0003:000018e8 00000128H .didat$5                DATA
 0003:00001a20 000024a8H .bss                    DATA
 0004:00000000 00001170H .pdata                  DATA
 0005:00000000 00000058H .rsrc$01                DATA
 0005:00000060 00000180H .rsrc$02                DATA

  Address         Publics by Value              Rva+Base               Lib:Object

 0000:00000000       ___safe_se_handler_count   0000000000000000     <absolute>
 0000:00000000       ___safe_se_handler_table   0000000000000000     <absolute>
 0000:00000000       __guard_fids_table         0000000000000000     <absolute>
 0000:00000000       __guard_flags              0000000000000000     <absolute>
 0000:00000000       __guard_fids_count         0000000000000000     <absolute>
 0000:00000000       __ImageBase                0000000180000000     <linker-defined>
 0001:000000f0       ?New@?$Factory@VFunctionTemplate@v8@@@imp@Nan@@SA?AV?$Local@VFunctionTemplate@v8@@@v8@@P6AXAEBV?$FunctionCallbackInfo@VValue@v8@@@3@@ZV?$Local@VValue@v8@@@5@V?$Local@VSignature@v8@@@5@@Z 00000001800010f0 f i binding.obj
 0001:00000280       ?WeakCallback@Iconv@?A0xe8528b84@@SAXAEBV?$WeakCallbackInfo@UIconv@?A0xe8528b84@@@Nan@@@Z 0000000180001280 f i binding.obj
 0001:000002b0       ?Initialize@Iconv@?A0xe8528b84@@SAXV?$Local@VObject@v8@@@v8@@@Z 00000001800012b0 f i binding.obj
 0001:000005c0       ?Make@Iconv@?A0xe8528b84@@SAXAEBV?$FunctionCallbackInfo@VValue@v8@@@Nan@@@Z 00000001800015c0 f i binding.obj
 0001:00000760       ?Convert@Iconv@?A0xe8528b84@@SAXAEBV?$FunctionCallbackInfo@VValue@v8@@@Nan@@@Z 0000000180001760 f i binding.obj
 0001:00000a70       ?invokeparameter@?$WeakCallbackInfo@UIconv@?A0xe8528b84@@@Nan@@CAXAEBV?$WeakCallbackInfo@V?$WeakCallbackInfo@UIconv@?A0xe8528b84@@@Nan@@@v8@@@Z 0000000180001a70 f i binding.obj
 0001:000167b0       libiconv_open              00000001800177b0 f   iconv.obj
 0001:00016c7c       __imp_load_?Data@Buffer@node@@YAPEADV?$Local@VObject@v8@@@v8@@@Z 0000000180017c7c f   node:node.exe
 0001:00016c88       __tailMerge_node_exe       0000000180017c88 f i node:node.exe
 0001:00016d01       __imp_load_node_module_register 0000000180017d01 f   node:node.exe
 0001:00016d0d       __imp_load_?ToLocalEmpty@V8@v8@@CAXXZ 0000000180017d0d f   node:node.exe
 0001:00016d19       __imp_load_?MakeWeak@V8@v8@@CAXPEAPEAVObject@internal@2@PEAXP6AXAEBV?$WeakCallbackInfo@X@2@@ZW4WeakCallbackType@2@@Z 0000000180017d19 f   node:node.exe
 0001:00016d25       __imp_load_?DisposeGlobal@V8@v8@@CAXPEAPEAVObject@internal@2@@Z 0000000180017d25 f   node:node.exe
 0001:00016d31       __imp_load_?GlobalizeReference@V8@v8@@CAPEAPEAVObject@internal@2@PEAVIsolate@42@PEAPEAV342@@Z 0000000180017d31 f   node:node.exe
 0001:00016d3d       __imp_load_?Escape@EscapableHandleScope@v8@@AEAAPEAPEAVObject@internal@2@PEAPEAV342@@Z 0000000180017d3d f   node:node.exe
 0001:00016d49       __imp_load_??0EscapableHandleScope@v8@@QEAA@PEAVIsolate@1@@Z 0000000180017d49 f   node:node.exe
 0001:00016d55       __imp_load_?Uint32Value@Value@v8@@QEBAIXZ 0000000180017d55 f   node:node.exe
 0001:00016d61       __imp_load_?BooleanValue@Value@v8@@QEBA_NXZ 0000000180017d61 f   node:node.exe
 0001:00016d6d       __imp_load_?ToInteger@Value@v8@@QEBA?AV?$MaybeLocal@VInteger@v8@@@2@V?$Local@VContext@v8@@@2@@Z 0000000180017d6d f   node:node.exe
 0001:00016d79       __imp_load_?GetFunction@FunctionTemplate@v8@@QEAA?AV?$Local@VFunction@v8@@@2@XZ 0000000180017d79 f   node:node.exe
 0001:00016d85       __imp_load_?New@FunctionTemplate@v8@@SA?AV?$Local@VFunctionTemplate@v8@@@2@PEAVIsolate@2@P6AXAEBV?$FunctionCallbackInfo@VValue@v8@@@2@@ZV?$Local@VValue@v8@@@2@V?$Local@VSignature@v8@@@2@H@Z 0000000180017d85 f   node:node.exe
 0001:00016d91       __imp_load_??1Utf8Value@String@v8@@QEAA@XZ 0000000180017d91 f   node:node.exe
 0001:00016d9d       __imp_load_??0Utf8Value@String@v8@@QEAA@V?$Local@VValue@v8@@@2@@Z 0000000180017d9d f   node:node.exe
 0001:00016da9       __imp_load_?NewFromUtf8@String@v8@@SA?AV?$MaybeLocal@VString@v8@@@2@PEAVIsolate@2@PEBDW4NewStringType@2@H@Z 0000000180017da9 f   node:node.exe
 0001:00016db5       __imp_load_?CreateHandle@HandleScope@v8@@KAPEAPEAVObject@internal@2@PEAVIsolate@42@PEAV342@@Z 0000000180017db5 f   node:node.exe
 0001:00016dc1       __imp_load_?CreateHandle@HandleScope@v8@@CAPEAPEAVObject@internal@2@PEAVHeapObject@42@PEAV342@@Z 0000000180017dc1 f   node:node.exe
 0001:00016dcd       __imp_load_??1HandleScope@v8@@QEAA@XZ 0000000180017dcd f   node:node.exe
 0001:00016dd9       __imp_load_?SlowGetAlignedPointerFromInternalField@Object@v8@@AEAAPEAXH@Z 0000000180017dd9 f   node:node.exe
 0001:00016de5       __imp_load_?SlowGetInternalField@Object@v8@@AEAA?AV?$Local@VValue@v8@@@2@H@Z 0000000180017de5 f   node:node.exe
 0001:00016df1       __imp_load_?SetAlignedPointerInInternalField@Object@v8@@QEAAXHPEAX@Z 0000000180017df1 f   node:node.exe
 0001:00016dfd       __imp_load_?SetInternalField@Object@v8@@QEAAXHV?$Local@VValue@v8@@@2@@Z 0000000180017dfd f   node:node.exe
 0001:00016e09       __imp_load_?Set@Object@v8@@QEAA_NV?$Local@VValue@v8@@@2@0@Z 0000000180017e09 f   node:node.exe
 0001:00016e15       __imp_load_?Set@Object@v8@@QEAA_NIV?$Local@VValue@v8@@@2@@Z 0000000180017e15 f   node:node.exe
 0001:00016e21       __imp_load_?SetInternalFieldCount@ObjectTemplate@v8@@QEAAXH@Z 0000000180017e21 f   node:node.exe
 0001:00016e2d       __imp_load_?NewInstance@ObjectTemplate@v8@@QEAA?AV?$Local@VObject@v8@@@2@XZ 0000000180017e2d f   node:node.exe
 0001:00016e39       __imp_load_?NewInstance@ObjectTemplate@v8@@QEAA?AV?$MaybeLocal@VObject@v8@@@2@V?$Local@VContext@v8@@@2@@Z 0000000180017e39 f   node:node.exe
 0001:00016e45       __imp_load_?New@ObjectTemplate@v8@@SA?AV?$Local@VObjectTemplate@v8@@@2@PEAVIsolate@2@V?$Local@VFunctionTemplate@v8@@@2@@Z 0000000180017e45 f   node:node.exe
 0001:00016e51       __imp_load_?New@ObjectTemplate@v8@@SA?AV?$Local@VObjectTemplate@v8@@@2@XZ 0000000180017e51 f   node:node.exe
 0001:00016e5d       __imp_load_?NewFromUnsigned@Integer@v8@@SA?AV?$Local@VInteger@v8@@@2@PEAVIsolate@2@I@Z 0000000180017e5d f   node:node.exe
 0001:00016e69       __imp_load_?New@Integer@v8@@SA?AV?$Local@VInteger@v8@@@2@PEAVIsolate@2@H@Z 0000000180017e69 f   node:node.exe
 0001:00016e75       __imp_load_?GetCurrentContext@Isolate@v8@@QEAA?AV?$Local@VContext@v8@@@2@XZ 0000000180017e75 f   node:node.exe
 0001:00016e81       __imp_load_?GetCurrent@Isolate@v8@@SAPEAV12@XZ 0000000180017e81 f   node:node.exe
 0001:00016e8d       __imp_load_?Value@External@v8@@QEBAPEAXXZ 0000000180017e8d f   node:node.exe
 0001:00016e99       __imp_load_?New@External@v8@@SA?AV?$Local@VExternal@v8@@@2@PEAVIsolate@2@PEAX@Z 0000000180017e99 f   node:node.exe
 0001:00016ea8       ??0bad_alloc@std@@QEAA@AEBV01@@Z 0000000180017ea8 f i libcpmt:xthrow.obj
 0001:00016ecc       ??1bad_alloc@std@@UEAA@XZ  0000000180017ecc f i libcpmt:xthrow.obj
 0001:00016edc       ??_Gbad_alloc@std@@UEAAPEAXI@Z 0000000180017edc f i libcpmt:xthrow.obj
 0001:00016edc       ??_Ebad_alloc@std@@UEAAPEAXI@Z 0000000180017edc f i libcpmt:xthrow.obj
 0001:00016f30       __security_check_cookie    0000000180017f30 f   LIBCMT:amdsecgs.obj
 0001:00016f60       memmove                    0000000180017f60 f   LIBCMT:memcpy.obj
 0001:00016f60       memcpy                     0000000180017f60 f   LIBCMT:memcpy.obj
 0001:000174c8       __doserrno                 00000001800184c8 f   LIBCMT:dosmap.obj
 0001:000174e8       _dosmaperr                 00000001800184e8 f   LIBCMT:dosmap.obj
 0001:00017538       _errno                     0000000180018538 f   LIBCMT:dosmap.obj
 0001:00017558       _get_errno_from_oserr      0000000180018558 f   LIBCMT:dosmap.obj
 0001:000175a8       __onexitinit               00000001800185a8 f   LIBCMT:onexit.obj
 0001:000175ec       _onexit                    00000001800185ec f   LIBCMT:onexit.obj
 0001:000176f8       atexit                     00000001800186f8 f   LIBCMT:onexit.obj
 0001:00017710       ??3@YAXPEAX@Z              0000000180018710 f   LIBCMT:delete.obj
 0001:00017718       ??2@YAPEAX_K@Z             0000000180018718 f   LIBCMT:new.obj
 0001:00017784       abort                      0000000180018784 f   LIBCMT:abort.obj
 0001:000177dc       free                       00000001800187dc f   LIBCMT:free.obj
 0001:0001781c       malloc                     000000018001881c f   LIBCMT:malloc.obj
 0001:000178d4       ??0_LocaleUpdate@@QEAA@PEAUlocaleinfo_struct@@@Z 00000001800188d4 f i LIBCMT:stricmp.obj
 0001:0001797c       __ascii_stricmp            000000018001897c f   LIBCMT:stricmp.obj
 0001:000179b8       _stricmp                   00000001800189b8 f   LIBCMT:stricmp.obj
 0001:00017a00       _stricmp_l                 0000000180018a00 f   LIBCMT:stricmp.obj
 0001:00017ab4       _CRT_INIT                  0000000180018ab4 f   LIBCMT:dllcrt0.obj
 0001:00017c14       _DllMainCRTStartup         0000000180018c14 f   LIBCMT:dllcrt0.obj
 0001:00017d90       strlen                     0000000180018d90 f   LIBCMT:strlen.obj
 0001:00017e38       _CxxThrowException         0000000180018e38 f   LIBCMT:throw.obj
 0001:00017f00       ??_Etype_info@@UEAAPEAXI@Z 0000000180018f00 f i LIBCMT:typinfo.obj
 0001:00017f00       ??_Gtype_info@@UEAAPEAXI@Z 0000000180018f00 f i LIBCMT:typinfo.obj
 0001:00017f3c       _fpmath                    0000000180018f3c f   LIBCMT:fpinit.obj
 0001:00017f44       _cfltcvt_init              0000000180018f44 f   LIBCMT:fpinit.obj
 0001:00017fcc       ??0exception@std@@QEAA@AEBQEBDH@Z 0000000180018fcc f   LIBCMT:stdexcpt.obj
 0001:00017fe8       ??0exception@std@@QEAA@AEBV01@@Z 0000000180018fe8 f   LIBCMT:stdexcpt.obj
 0001:00018014       ??1exception@std@@UEAA@XZ  0000000180019014 f   LIBCMT:stdexcpt.obj
 0001:00018024       ??4exception@std@@QEAAAEAV01@AEBV01@@Z 0000000180019024 f   LIBCMT:stdexcpt.obj
 0001:00018068       ??_Eexception@std@@UEAAPEAXI@Z 0000000180019068 f i LIBCMT:stdexcpt.obj
 0001:00018068       ??_Gexception@std@@UEAAPEAXI@Z 0000000180019068 f i LIBCMT:stdexcpt.obj
 0001:000180a4       ?_Copy_str@exception@std@@AEAAXPEBD@Z 00000001800190a4 f   LIBCMT:stdexcpt.obj
 0001:00018100       ?_Tidy@exception@std@@AEAAXXZ 0000000180019100 f   LIBCMT:stdexcpt.obj
 0001:00018128       ?what@exception@std@@UEBAPEBDXZ 0000000180019128 f   LIBCMT:stdexcpt.obj
 0001:0001813c       __raise_securityfailure    000000018001913c f   LIBCMT:gs_report.obj
 0001:00018188       __report_gsfailure         0000000180019188 f   LIBCMT:gs_report.obj
 0001:0001825c       __isa_available_init       000000018001925c f   LIBCMT:cpu_disp.obj
 0001:00018400       _call_reportfault          0000000180019400 f   LIBCMT:invarg.obj
 0001:000184f4       _initp_misc_invarg         00000001800194f4 f   LIBCMT:invarg.obj
 0001:000184fc       _invalid_parameter         00000001800194fc f   LIBCMT:invarg.obj
 0001:00018564       _invalid_parameter_noinfo  0000000180019564 f   LIBCMT:invarg.obj
 0001:00018584       _invoke_watson             0000000180019584 f   LIBCMT:invarg.obj
 0001:000185c0       _freefls                   00000001800195c0 f   LIBCMT:tidtable.obj
 0001:000186f4       _freeptd                   00000001800196f4 f   LIBCMT:tidtable.obj
 0001:00018730       _getptd                    0000000180019730 f   LIBCMT:tidtable.obj
 0001:00018754       _getptd_noexit             0000000180019754 f   LIBCMT:tidtable.obj
 0001:000187d8       _initptd                   00000001800197d8 f   LIBCMT:tidtable.obj
 0001:0001889c       _mtinit                    000000018001989c f   LIBCMT:tidtable.obj
 0001:0001891c       _mtterm                    000000018001991c f   LIBCMT:tidtable.obj
 0001:00018940       wcscat_s                   0000000180019940 f   LIBCMT:wcscat_s.obj
 0001:000189c8       wcscpy_s                   00000001800199c8 f   LIBCMT:wcscpy_s.obj
 0001:00018a34       wcslen                     0000000180019a34 f   LIBCMT:wcslen.obj
 0001:00018a50       __crtCorExitProcess        0000000180019a50 f   LIBCMT:crt0dat.obj
 0001:00018a94       __crtExitProcess           0000000180019a94 f   LIBCMT:crt0dat.obj
 0001:00018aac       __freeCrtMemory            0000000180019aac f   LIBCMT:crt0dat.obj
 0001:00018bf4       _amsg_exit                 0000000180019bf4 f   LIBCMT:crt0dat.obj
 0001:00018c1c       _cexit                     0000000180019c1c f   LIBCMT:crt0dat.obj
 0001:00018c2c       _cinit                     0000000180019c2c f   LIBCMT:crt0dat.obj
 0001:00018cc4       _exit                      0000000180019cc4 f   LIBCMT:crt0dat.obj
 0001:00018cd0       _init_pointers             0000000180019cd0 f   LIBCMT:crt0dat.obj
 0001:00018d7c       _initterm_e                0000000180019d7c f   LIBCMT:crt0dat.obj
 0001:00018db8       _lockexit                  0000000180019db8 f   LIBCMT:crt0dat.obj
 0001:00018dc4       _unlockexit                0000000180019dc4 f   LIBCMT:crt0dat.obj
 0001:00018f68       _set_error_mode            0000000180019f68 f   LIBCMT:errmode.obj
 0001:00018fa8       __initstdio                0000000180019fa8 f   LIBCMT:_file.obj
 0001:00019040       __endstdio                 000000018001a040 f   LIBCMT:_file.obj
 0001:00019070       _lock_file                 000000018001a070 f   LIBCMT:_file.obj
 0001:000190d8       _lock_file2                000000018001a0d8 f   LIBCMT:_file.obj
 0001:0001910c       _unlock_file               000000018001a10c f   LIBCMT:_file.obj
 0001:0001915c       _unlock_file2              000000018001a15c f   LIBCMT:_file.obj
 0001:0001917c       _fflush_nolock             000000018001a17c f   LIBCMT:fflush.obj
 0001:000191c8       _flush                     000000018001a1c8 f   LIBCMT:fflush.obj
 0001:00019244       _flushall                  000000018001a244 f   LIBCMT:fflush.obj
 0001:00019338       __get_sigabrt              000000018001a338 f   LIBCMT:winsig.obj
 0001:00019348       _initp_misc_winsig         000000018001a348 f   LIBCMT:winsig.obj
 0001:00019368       raise                      000000018001a368 f   LIBCMT:winsig.obj
 0001:0001959c       __crtMessageBoxW           000000018001a59c f   LIBCMT:crtmboxw.obj
 0001:00019810       __GSHandlerCheck           000000018001a810 f   LIBCMT:gshandler.obj
 0001:00019830       __GSHandlerCheckCommon     000000018001a830 f   LIBCMT:gshandler.obj
 0001:00019894       _FF_MSGBANNER              000000018001a894 f   LIBCMT:crt0msg.obj
 0001:000198d8       _GET_RTERRMSG              000000018001a8d8 f   LIBCMT:crt0msg.obj
 0001:00019908       _NMSG_WRITE                000000018001a908 f   LIBCMT:crt0msg.obj
 0001:00019b78       _msize                     000000018001ab78 f   LIBCMT:msize.obj
 0001:00019bb4       _calloc_crt                000000018001abb4 f   LIBCMT:crtheap.obj
 0001:00019c34       _malloc_crt                000000018001ac34 f   LIBCMT:crtheap.obj
 0001:00019cb0       _realloc_crt               000000018001acb0 f   LIBCMT:crtheap.obj
 0001:00019d34       __C_specific_handler       000000018001ad34 f   LIBCMT:chandler.obj
 0001:00019f18       _initp_misc_purevirt       000000018001af18 f   LIBCMT:inithelp.obj
 0001:00019f20       _callnewh                  000000018001af20 f   LIBCMT:handler.obj
 0001:00019f54       _initp_heap_handler        000000018001af54 f   LIBCMT:handler.obj
 0001:00019f5c       _heap_init                 000000018001af5c f   LIBCMT:heapinit.obj
 0001:00019f7c       _heap_term                 000000018001af7c f   LIBCMT:heapinit.obj
 0001:00019f88       __addlocaleref             000000018001af88 f   LIBCMT:localref.obj
 0001:0001a014       __freetlocinfo             000000018001b014 f   LIBCMT:localref.obj
 0001:0001a1ac       __removelocaleref          000000018001b1ac f   LIBCMT:localref.obj
 0001:0001a250       __updatetlocinfo           000000018001b250 f   LIBCMT:localref.obj
 0001:0001a2c8       _updatetlocinfoEx_nolock   000000018001b2c8 f   LIBCMT:localref.obj
 0001:0001a32c       __initmbctable             000000018001b32c f   LIBCMT:mbctype.obj
 0001:0001a648       __updatetmbcinfo           000000018001b648 f   LIBCMT:mbctype.obj
 0001:0001a704       _setmbcp                   000000018001b704 f   LIBCMT:mbctype.obj
 0001:0001a948       _setmbcp_nolock            000000018001b948 f   LIBCMT:mbctype.obj
 0001:0001abf8       _tolower_l                 000000018001bbf8 f   LIBCMT:tolower.obj
 0001:0001ad4c       tolower                    000000018001bd4c f   LIBCMT:tolower.obj
 0001:0001ad6c       _locterm                   000000018001bd6c f   LIBCMT:wsetloca.obj
 0001:0001adb4       _XcptFilter                000000018001bdb4 f   LIBCMT:winxfltr.obj
 0001:0001af80       __CppXcptFilter            000000018001bf80 f   LIBCMT:winxfltr.obj
 0001:0001af94       _ioinit                    000000018001bf94 f   LIBCMT:ioinit.obj
 0001:0001b2c4       _ioterm                    000000018001c2c4 f   LIBCMT:ioinit.obj
 0001:0001b338       _setargv                   000000018001c338 f   LIBCMT:stdargv.obj
 0001:0001b5f4       _setenvp                   000000018001c5f4 f   LIBCMT:stdenvp.obj
 0001:0001b728       __security_init_cookie     000000018001c728 f   LIBCMT:gs_support.obj
 0001:0001b7d4       DllMain                    000000018001c7d4 f   LIBCMT:dllmain.obj
 0001:0001b7dc       __crtGetEnvironmentStringsA 000000018001c7dc f   LIBCMT:a_env.obj
 0001:0001b8d0       __crtCaptureCurrentContext 000000018001c8d0 f   LIBCMT:winapisupp.obj
 0001:0001b940       __crtCapturePreviousContext 000000018001c940 f   LIBCMT:winapisupp.obj
 0001:0001b9b4       __crtFlsAlloc              000000018001c9b4 f   LIBCMT:winapisupp.obj
 0001:0001b9d0       __crtFlsFree               000000018001c9d0 f   LIBCMT:winapisupp.obj
 0001:0001b9ec       __crtFlsGetValue           000000018001c9ec f   LIBCMT:winapisupp.obj
 0001:0001ba08       __crtFlsSetValue           000000018001ca08 f   LIBCMT:winapisupp.obj
 0001:0001ba24       __crtInitializeCriticalSectionEx 000000018001ca24 f   LIBCMT:winapisupp.obj
 0001:0001ba50       __crtIsPackagedApp         000000018001ca50 f   LIBCMT:winapisupp.obj
 0001:0001ba9c       __crtLoadWinApiPointers    000000018001ca9c f   LIBCMT:winapisupp.obj
 0001:0001be98       __crtSleep                 000000018001ce98 f   LIBCMT:winapisupp.obj
 0001:0001bea0       __crtTerminateProcess      000000018001cea0 f   LIBCMT:winapisupp.obj
 0001:0001bec0       __crtUnhandledException    000000018001cec0 f   LIBCMT:winapisupp.obj
 0001:0001bee0       _RTC_Initialize            000000018001cee0 f   LIBCMT:initsect.obj
 0001:0001bf18       _RTC_Terminate             000000018001cf18 f   LIBCMT:initsect.obj
 0001:0001bf50       __DestructExceptionObject  000000018001cf50 f   LIBCMT:frame.obj
 0001:0001bfc0       ?terminate@@YAXXZ          000000018001cfc0 f   LIBCMT:hooks.obj
 0001:0001bfe0       _initp_eh_hooks            000000018001cfe0 f   LIBCMT:hooks.obj
 0001:0001c010       strcmp                     000000018001d010 f   LIBCMT:strcmp.obj
 0001:0001c078       ?_Type_info_dtor@type_info@@CAXPEAV1@@Z 000000018001d078 f   LIBCMT:typname.obj
 0001:0001c0e4       _cfltcvt                   000000018001d0e4 f   LIBCMT:cvt.obj
 0001:0001c108       _cfltcvt_l                 000000018001d108 f   LIBCMT:cvt.obj
 0001:0001c188       _cftoa_l                   000000018001d188 f   LIBCMT:cvt.obj
 0001:0001c734       _cftoe_l                   000000018001d734 f   LIBCMT:cvt.obj
 0001:0001c990       _cftof_l                   000000018001d990 f   LIBCMT:cvt.obj
 0001:0001ca64       _cftog_l                   000000018001da64 f   LIBCMT:cvt.obj
 0001:0001cb98       _cropzeros                 000000018001db98 f   LIBCMT:cvt.obj
 0001:0001cba0       _cropzeros_l               000000018001dba0 f   LIBCMT:cvt.obj
 0001:0001cc38       _fassign                   000000018001dc38 f   LIBCMT:cvt.obj
 0001:0001cc40       _fassign_l                 000000018001dc40 f   LIBCMT:cvt.obj
 0001:0001cc80       _forcdecpt                 000000018001dc80 f   LIBCMT:cvt.obj
 0001:0001cc88       _forcdecpt_l               000000018001dc88 f   LIBCMT:cvt.obj
 0001:0001cd08       _positive                  000000018001dd08 f   LIBCMT:cvt.obj
 0001:0001cd1c       _initp_misc_cfltcvt_tab    000000018001dd1c f   LIBCMT:cmiscdat.obj
 0001:0001cd58       strcpy_s                   000000018001dd58 f   LIBCMT:strcpy_s.obj
 0001:0001cdbc       __crt_debugger_hook        000000018001ddbc f   LIBCMT:dbghook.obj
 0001:0001cde0       memset                     000000018001dde0 f   LIBCMT:memset.obj
 0001:0001d00c       _lock                      000000018001e00c f   LIBCMT:mlock.obj
 0001:0001d050       _mtdeletelocks             000000018001e050 f   LIBCMT:mlock.obj
 0001:0001d0d8       _mtinitlocknum             000000018001e0d8 f   LIBCMT:mlock.obj
 0001:0001d198       _mtinitlocks               000000018001e198 f   LIBCMT:mlock.obj
 0001:0001d1fc       _unlock                    000000018001e1fc f   LIBCMT:mlock.obj
 0001:0001d220       _FindPESection             000000018001e220 f   LIBCMT:pesect.obj
 0001:0001d270       _IsNonwritableInCurrentImage 000000018001e270 f   LIBCMT:pesect.obj
 0001:0001d2c0       _ValidateImageBase         000000018001e2c0 f   LIBCMT:pesect.obj
 0001:0001d2f0       _initp_misc_rand_s         000000018001e2f0 f   LIBCMT:rand_s.obj
 0001:0001d2f8       _fcloseall                 000000018001e2f8 f   LIBCMT:closeall.obj
 0001:0001d3a0       _fileno                    000000018001e3a0 f   LIBCMT:fileno.obj
 0001:0001d3c8       _commit                    000000018001e3c8 f   LIBCMT:commit.obj
 0001:0001d4a0       _write                     000000018001e4a0 f   LIBCMT:write.obj
 0001:0001d584       _write_nolock              000000018001e584 f   LIBCMT:write.obj
 0001:0001dd78       _freebuf                   000000018001ed78 f   LIBCMT:_freebuf.obj
 0001:0001ddb0       wcsncpy_s                  000000018001edb0 f   LIBCMT:wcsncpy_s.obj
 0001:0001de7c       realloc                    000000018001ee7c f   LIBCMT:realloc.obj
 0001:0001df50       _calloc_impl               000000018001ef50 f   LIBCMT:calloc_impl.obj
 0001:0001e000       _local_unwind              000000018001f000 f   LIBCMT:jmpuwind.obj
 0001:0001e030       _NLG_Notify                000000018001f030 f   LIBCMT:jmpuwind.obj
 0001:0001e050       __NLG_Dispatch2            000000018001f050 f   LIBCMT:jmpuwind.obj
 0001:0001e060       __NLG_Return2              000000018001f060 f   LIBCMT:jmpuwind.obj
 0001:0001e064       GetTableIndexFromLocaleName 000000018001f064 f   LIBCMT:winapinls.obj
 0001:0001e0f0       __crtDownlevelLocaleNameToLCID 000000018001f0f0 f   LIBCMT:winapinls.obj
 0001:0001e124       __crtLCMapStringEx         000000018001f124 f   LIBCMT:winapinls.obj
 0001:0001e1b4       __wcsnicmp_ascii           000000018001f1b4 f   LIBCMT:winapinls.obj
 0001:0001e220       _get_fpsr                  000000018001f220 f   LIBCMT:fpsr.obj
 0001:0001e230       _set_fpsr                  000000018001f230 f   LIBCMT:fpsr.obj
 0001:0001e23a       _fclrf                     000000018001f23a f   LIBCMT:fpsr.obj
 0001:0001e24e       _frnd                      000000018001f24e f   LIBCMT:fpsr.obj
 0001:0001e270       __free_lconv_mon           000000018001f270 f   LIBCMT:initmon.obj
 0001:0001e37c       __free_lconv_num           000000018001f37c f   LIBCMT:initnum.obj
 0001:0001e3e8       __free_lc_time             000000018001f3e8 f   LIBCMT:inittime.obj
 0001:0001ead0       __crtLCMapStringA          000000018001fad0 f   LIBCMT:a_map.obj
 0001:0001ece0       __crtGetStringTypeA        000000018001fce0 f   LIBCMT:a_str.obj
 0001:0001ed5c       _isctype_l                 000000018001fd5c f   LIBCMT:isctype.obj
 0001:0001ee38       _isleadbyte_l              000000018001fe38 f i LIBCMT:_wctype.obj
 0001:0001ee7c       isleadbyte                 000000018001fe7c f i LIBCMT:_wctype.obj
 0001:0001eee0       memcmp                     000000018001fee0 f   LIBCMT:memcmp.obj
 0001:0001f024       _ismbblead                 0000000180020024 f   LIBCMT:ismbbyte.obj
 0001:0001f050       _CallSettingFrame          0000000180020050 f   LIBCMT:handlers.obj
 0001:0001f090       _GetNextInstrOffset        0000000180020090 f   LIBCMT:handlers.obj
 0001:0001f098       isdigit                    0000000180020098 f i LIBCMT:_ctype.obj
 0001:0001f114       strrchr                    0000000180020114 f   LIBCMT:strrchr.obj
 0001:0001f258       _fptostr                   0000000180020258 f   LIBCMT:_fptostr.obj
 0001:0001f324       __crt_atoflt_l             0000000180020324 f   LIBCMT:atodbl.obj
 0001:0001f3f4       _atodbl_l                  00000001800203f4 f   LIBCMT:atodbl.obj
 0001:0001f4bc       _atoflt_l                  00000001800204bc f   LIBCMT:atodbl.obj
 0001:0001f4c4       __dtold                    00000001800204c4 f   LIBCMT:cfout.obj
 0001:0001f594       _fltout2                   0000000180020594 f   LIBCMT:cfout.obj
 0001:0001f64c       _fptrap                    000000018002064c f   LIBCMT:crt0fp.obj
 0001:0001f658       _isatty                    0000000180020658 f   LIBCMT:isatty.obj
 0001:0001f6b8       _fclose_nolock             00000001800206b8 f   LIBCMT:fclose.obj
 0001:0001f734       fclose                     0000000180020734 f   LIBCMT:fclose.obj
 0001:0001f79c       __lock_fhandle             000000018002079c f   LIBCMT:osfinfo.obj
 0001:0001f834       _free_osfhnd               0000000180020834 f   LIBCMT:osfinfo.obj
 0001:0001f8e0       _get_osfhandle             00000001800208e0 f   LIBCMT:osfinfo.obj
 0001:0001f954       _unlock_fhandle            0000000180020954 f   LIBCMT:osfinfo.obj
 0001:0001f980       _lseeki64_nolock           0000000180020980 f   LIBCMT:lseeki64.obj
 0001:0001fa14       _mbtowc_l                  0000000180020a14 f   LIBCMT:mbtowc.obj
 0001:0001fb68       mbtowc                     0000000180020b68 f   LIBCMT:mbtowc.obj
 0001:0001fb70       _putwch_nolock             0000000180020b70 f   LIBCMT:putwch.obj
 0001:0001fbe0       __chkstk                   0000000180020be0 f   LIBCMT:chkstk.obj
 0001:0001fbe0       _alloca_probe              0000000180020be0 f   LIBCMT:chkstk.obj
 0001:0001fc30       _ld12tod                   0000000180020c30 f   LIBCMT:intrncvt.obj
 0001:000201e8       _ld12tof                   00000001800211e8 f   LIBCMT:intrncvt.obj
 0001:000207a0       __strgtold12_l             00000001800217a0 f   LIBCMT:strgtold.obj
 0001:00021004       $I10_OUTPUT                0000000180022004 f   LIBCMT:x10fout.obj
 0001:00021adc       _close                     0000000180022adc f   LIBCMT:close.obj
 0001:00021ba0       _close_nolock              0000000180022ba0 f   LIBCMT:close.obj
 0001:00021c5c       __termconout               0000000180022c5c f   LIBCMT:initcon.obj
 0001:00021c7c       __initconout               0000000180022c7c f   LIBCMT:initcon.obj
 0001:00021cb8       __mtold12                  0000000180022cb8 f   LIBCMT:mantold.obj
 0001:00021ee0       IsProcessorFeaturePresent  0000000180022ee0 f   kernel32:KERNEL32.dll
 0001:00021ee6       RtlUnwindEx                0000000180022ee6 f   kernel32:KERNEL32.dll
 0001:00021eec       __delayLoadHelper2         0000000180022eec f   DelayImp:delayhlp.obj
 0002:00000000       __imp_GetModuleHandleA     0000000180024000     kernel32:KERNEL32.dll
 0002:00000008       __imp_GetStdHandle         0000000180024008     kernel32:KERNEL32.dll
 0002:00000010       __imp_GetFileType          0000000180024010     kernel32:KERNEL32.dll
 0002:00000018       __imp_GetModuleFileNameW   0000000180024018     kernel32:KERNEL32.dll
 0002:00000020       __imp_GetModuleHandleExW   0000000180024020     kernel32:KERNEL32.dll
 0002:00000028       __imp_WriteConsoleW        0000000180024028     kernel32:KERNEL32.dll
 0002:00000030       __imp_EncodePointer        0000000180024030     kernel32:KERNEL32.dll
 0002:00000038       __imp_DecodePointer        0000000180024038     kernel32:KERNEL32.dll
 0002:00000040       __imp_IsProcessorFeaturePresent 0000000180024040     kernel32:KERNEL32.dll
 0002:00000048       __imp_GetLastError         0000000180024048     kernel32:KERNEL32.dll
 0002:00000050       __imp_HeapFree             0000000180024050     kernel32:KERNEL32.dll
 0002:00000058       __imp_HeapAlloc            0000000180024058     kernel32:KERNEL32.dll
 0002:00000060       __imp_GetCommandLineA      0000000180024060     kernel32:KERNEL32.dll
 0002:00000068       __imp_GetCurrentThreadId   0000000180024068     kernel32:KERNEL32.dll
 0002:00000070       __imp_RtlPcToFileHeader    0000000180024070     kernel32:KERNEL32.dll
 0002:00000078       __imp_RaiseException       0000000180024078     kernel32:KERNEL32.dll
 0002:00000080       __imp_RtlLookupFunctionEntry 0000000180024080     kernel32:KERNEL32.dll
 0002:00000088       __imp_RtlUnwindEx          0000000180024088     kernel32:KERNEL32.dll
 0002:00000090       __imp_IsDebuggerPresent    0000000180024090     kernel32:KERNEL32.dll
 0002:00000098       __imp_SetLastError         0000000180024098     kernel32:KERNEL32.dll
 0002:000000a0       __imp_ExitProcess          00000001800240a0     kernel32:KERNEL32.dll
 0002:000000a8       __imp_GetProcAddress       00000001800240a8     kernel32:KERNEL32.dll
 0002:000000b0       __imp_MultiByteToWideChar  00000001800240b0     kernel32:KERNEL32.dll
 0002:000000b8       __imp_WideCharToMultiByte  00000001800240b8     kernel32:KERNEL32.dll
 0002:000000c0       __imp_EnterCriticalSection 00000001800240c0     kernel32:KERNEL32.dll
 0002:000000c8       __imp_LeaveCriticalSection 00000001800240c8     kernel32:KERNEL32.dll
 0002:000000d0       __imp_OutputDebugStringW   00000001800240d0     kernel32:KERNEL32.dll
 0002:000000d8       __imp_LoadLibraryExW       00000001800240d8     kernel32:KERNEL32.dll
 0002:000000e0       __imp_WriteFile            00000001800240e0     kernel32:KERNEL32.dll
 0002:000000e8       __imp_HeapSize             00000001800240e8     kernel32:KERNEL32.dll
 0002:000000f0       __imp_GetProcessHeap       00000001800240f0     kernel32:KERNEL32.dll
 0002:000000f8       __imp_IsValidCodePage      00000001800240f8     kernel32:KERNEL32.dll
 0002:00000100       __imp_GetACP               0000000180024100     kernel32:KERNEL32.dll
 0002:00000108       __imp_GetOEMCP             0000000180024108     kernel32:KERNEL32.dll
 0002:00000110       __imp_GetCPInfo            0000000180024110     kernel32:KERNEL32.dll
 0002:00000118       __imp_DeleteCriticalSection 0000000180024118     kernel32:KERNEL32.dll
 0002:00000120       __imp_GetStartupInfoW      0000000180024120     kernel32:KERNEL32.dll
 0002:00000128       __imp_GetModuleFileNameA   0000000180024128     kernel32:KERNEL32.dll
 0002:00000130       __imp_QueryPerformanceCounter 0000000180024130     kernel32:KERNEL32.dll
 0002:00000138       __imp_GetCurrentProcessId  0000000180024138     kernel32:KERNEL32.dll
 0002:00000140       __imp_GetSystemTimeAsFileTime 0000000180024140     kernel32:KERNEL32.dll
 0002:00000148       __imp_GetEnvironmentStringsW 0000000180024148     kernel32:KERNEL32.dll
 0002:00000150       __imp_FreeEnvironmentStringsW 0000000180024150     kernel32:KERNEL32.dll
 0002:00000158       __imp_RtlCaptureContext    0000000180024158     kernel32:KERNEL32.dll
 0002:00000160       __imp_RtlVirtualUnwind     0000000180024160     kernel32:KERNEL32.dll
 0002:00000168       __imp_UnhandledExceptionFilter 0000000180024168     kernel32:KERNEL32.dll
 0002:00000170       __imp_SetUnhandledExceptionFilter 0000000180024170     kernel32:KERNEL32.dll
 0002:00000178       __imp_InitializeCriticalSectionAndSpinCount 0000000180024178     kernel32:KERNEL32.dll
 0002:00000180       __imp_Sleep                0000000180024180     kernel32:KERNEL32.dll
 0002:00000188       __imp_GetCurrentProcess    0000000180024188     kernel32:KERNEL32.dll
 0002:00000190       __imp_TerminateProcess     0000000180024190     kernel32:KERNEL32.dll
 0002:00000198       __imp_TlsAlloc             0000000180024198     kernel32:KERNEL32.dll
 0002:000001a0       __imp_TlsGetValue          00000001800241a0     kernel32:KERNEL32.dll
 0002:000001a8       __imp_TlsSetValue          00000001800241a8     kernel32:KERNEL32.dll
 0002:000001b0       __imp_TlsFree              00000001800241b0     kernel32:KERNEL32.dll
 0002:000001b8       __imp_GetModuleHandleW     00000001800241b8     kernel32:KERNEL32.dll
 0002:000001c0       __imp_FreeLibrary          00000001800241c0     kernel32:KERNEL32.dll
 0002:000001c8       __imp_FlushFileBuffers     00000001800241c8     kernel32:KERNEL32.dll
 0002:000001d0       __imp_GetConsoleCP         00000001800241d0     kernel32:KERNEL32.dll
 0002:000001d8       __imp_GetConsoleMode       00000001800241d8     kernel32:KERNEL32.dll
 0002:000001e0       __imp_HeapReAlloc          00000001800241e0     kernel32:KERNEL32.dll
 0002:000001e8       __imp_LCMapStringW         00000001800241e8     kernel32:KERNEL32.dll
 0002:000001f0       __imp_GetStringTypeW       00000001800241f0     kernel32:KERNEL32.dll
 0002:000001f8       __imp_SetStdHandle         00000001800241f8     kernel32:KERNEL32.dll
 0002:00000200       __imp_SetFilePointerEx     0000000180024200     kernel32:KERNEL32.dll
 0002:00000208       __imp_CloseHandle          0000000180024208     kernel32:KERNEL32.dll
 0002:00000210       __imp_CreateFileW          0000000180024210     kernel32:KERNEL32.dll
 0002:00000218       __imp_LoadLibraryExA       0000000180024218     kernel32:KERNEL32.dll
 0002:00000220       \177KERNEL32_NULL_THUNK_DATA 0000000180024220     kernel32:KERNEL32.dll
 0002:00000228       __xc_a                     0000000180024228     LIBCMT:crt0init.obj
 0002:00000248       _register_libiconv_        0000000180024248     binding.obj
 0002:00000250       __xc_z                     0000000180024250     LIBCMT:crt0init.obj
 0002:00000258       __xi_a                     0000000180024258     LIBCMT:crt0init.obj
 0002:00000280       __xi_z                     0000000180024280     LIBCMT:crt0init.obj
 0002:00000288       __xp_a                     0000000180024288     LIBCMT:crt0init.obj
 0002:000002a8       __xp_z                     00000001800242a8     LIBCMT:crt0init.obj
 0002:000002b0       __xt_a                     00000001800242b0     LIBCMT:crt0init.obj
 0002:000002b8       __xt_z                     00000001800242b8     LIBCMT:crt0init.obj
 0002:00000300       __sz_node_exe              0000000180024300     node:node.exe
 0002:00000cb0       ??_C@_0BC@CIJDGCDI@permission?5denied?$AA@ 0000000180024cb0     libcpmt:syserror.obj
 0002:00000cc8       ??_C@_0M@MIDIAGJP@file?5exists?$AA@ 0000000180024cc8     libcpmt:syserror.obj
 0002:00000cd8       ??_C@_0P@FDINDDOK@no?5such?5device?$AA@ 0000000180024cd8     libcpmt:syserror.obj
 0002:00000ce8       ??_C@_0BC@EJHOMAAK@filename?5too?5long?$AA@ 0000000180024ce8     libcpmt:syserror.obj
 0002:00000d00       ??_C@_0BI@NGCEHDD@device?5or?5resource?5busy?$AA@ 0000000180024d00     libcpmt:syserror.obj
 0002:00000d18       ??_C@_08GLNPIFBN@io?5error?$AA@ 0000000180024d18     libcpmt:syserror.obj
 0002:00000d28       ??_C@_0BE@JIDOCPHM@directory?5not?5empty?$AA@ 0000000180024d28     libcpmt:syserror.obj
 0002:00000d40       ??_C@_0BB@FCMFBGOM@invalid?5argument?$AA@ 0000000180024d40     libcpmt:syserror.obj
 0002:00000d58       ??_C@_0BD@IJDJKDEA@no?5space?5on?5device?$AA@ 0000000180024d58     libcpmt:syserror.obj
 0002:00000d70       ??_C@_0BK@NDOCBPGE@no?5such?5file?5or?5directory?$AA@ 0000000180024d70     libcpmt:syserror.obj
 0002:00000d90       ??_C@_0BH@KEFGLDAF@function?5not?5supported?$AA@ 0000000180024d90     libcpmt:syserror.obj
 0002:00000da8       ??_C@_0BC@NJECKMKE@no?5lock?5available?$AA@ 0000000180024da8     libcpmt:syserror.obj
 0002:00000dc0       ??_C@_0BC@ENOOLCNF@not?5enough?5memory?$AA@ 0000000180024dc0     libcpmt:syserror.obj
 0002:00000dd8       ??_C@_0BP@LKNGHENJ@resource?5unavailable?5try?5again?$AA@ 0000000180024dd8     libcpmt:syserror.obj
 0002:00000df8       ??_C@_0BC@PPHBOELF@cross?5device?5link?$AA@ 0000000180024df8     libcpmt:syserror.obj
 0002:00000e10       ??_C@_0BD@MOLBPMEA@operation?5canceled?$AA@ 0000000180024e10     libcpmt:syserror.obj
 0002:00000e28       ??_C@_0BE@GHAFMPAH@too?5many?5files?5open?$AA@ 0000000180024e28     libcpmt:syserror.obj
 0002:00000e40       ??_C@_0BC@FNODOBAE@permission_denied?$AA@ 0000000180024e40     libcpmt:syserror.obj
 0002:00000e58       ??_C@_0P@LNDJPBFK@address_in_use?$AA@ 0000000180024e58     libcpmt:syserror.obj
 0002:00000e68       ??_C@_0BG@IPMGOJF@address_not_available?$AA@ 0000000180024e68     libcpmt:syserror.obj
 0002:00000e80       ??_C@_0BN@LCBDHODA@address_family_not_supported?$AA@ 0000000180024e80     libcpmt:syserror.obj
 0002:00000ea0       ??_C@_0BP@FOJJHMCC@connection_already_in_progress?$AA@ 0000000180024ea0     libcpmt:syserror.obj
 0002:00000ec0       ??_C@_0BE@DLHHIBGN@bad_file_descriptor?$AA@ 0000000180024ec0     libcpmt:syserror.obj
 0002:00000ed8       ??_C@_0BD@OJMJDIGI@connection_aborted?$AA@ 0000000180024ed8     libcpmt:syserror.obj
 0002:00000ef0       ??_C@_0BD@NGKCIFEP@connection_refused?$AA@ 0000000180024ef0     libcpmt:syserror.obj
 0002:00000f08       ??_C@_0BB@JOANDNCK@connection_reset?$AA@ 0000000180024f08     libcpmt:syserror.obj
 0002:00000f20       ??_C@_0BN@JLJNLKLK@destination_address_required?$AA@ 0000000180024f20     libcpmt:syserror.obj
 0002:00000f40       ??_C@_0M@IJGMGFGP@bad_address?$AA@ 0000000180024f40     libcpmt:syserror.obj
 0002:00000f50       ??_C@_0BB@KKNHPPIN@host_unreachable?$AA@ 0000000180024f50     libcpmt:syserror.obj
 0002:00000f68       ??_C@_0BG@DJGBJIIK@operation_in_progress?$AA@ 0000000180024f68     libcpmt:syserror.obj
 0002:00000f80       ??_C@_0M@EGEKIIMP@interrupted?$AA@ 0000000180024f80     libcpmt:syserror.obj
 0002:00000f90       ??_C@_0BB@FFIHMIPJ@invalid_argument?$AA@ 0000000180024f90     libcpmt:syserror.obj
 0002:00000fa8       ??_C@_0BC@FIFLCHLO@already_connected?$AA@ 0000000180024fa8     libcpmt:syserror.obj
 0002:00000fc0       ??_C@_0BE@GJJJJDDA@too_many_files_open?$AA@ 0000000180024fc0     libcpmt:syserror.obj
 0002:00000fd8       ??_C@_0N@HPMLKHPL@message_size?$AA@ 0000000180024fd8     libcpmt:syserror.obj
 0002:00000fe8       ??_C@_0BC@LEEIKBAL@filename_too_long?$AA@ 0000000180024fe8     libcpmt:syserror.obj
 0002:00001000       ??_C@_0N@FCPALPJK@network_down?$AA@ 0000000180025000     libcpmt:syserror.obj
 0002:00001010       ??_C@_0O@EHNDLHIG@network_reset?$AA@ 0000000180025010     libcpmt:syserror.obj
 0002:00001020       ??_C@_0BE@JFNJIDNF@network_unreachable?$AA@ 0000000180025020     libcpmt:syserror.obj
 0002:00001038       ??_C@_0BA@FDIJKJCL@no_buffer_space?$AA@ 0000000180025038     libcpmt:syserror.obj
 0002:00001048       ??_C@_0BD@JHIHCGKP@no_protocol_option?$AA@ 0000000180025048     libcpmt:syserror.obj
 0002:00001060       ??_C@_0O@GBCLHHD@not_connected?$AA@ 0000000180025060     libcpmt:syserror.obj
 0002:00001070       ??_C@_0N@IMHKKLEM@not_a_socket?$AA@ 0000000180025070     libcpmt:syserror.obj
 0002:00001080       ??_C@_0BI@ICEIDKLJ@operation_not_supported?$AA@ 0000000180025080     libcpmt:syserror.obj
 0002:00001098       ??_C@_0BH@KAPBAIJF@protocol_not_supported?$AA@ 0000000180025098     libcpmt:syserror.obj
 0002:000010b0       ??_C@_0BE@GAOJJFPC@wrong_protocol_type?$AA@ 00000001800250b0     libcpmt:syserror.obj
 0002:000010c8       ??_C@_09NCHNLHPG@timed_out?$AA@ 00000001800250c8     libcpmt:syserror.obj
 0002:000010d8       ??_C@_0BG@GDGHKFDH@operation_would_block?$AA@ 00000001800250d8     libcpmt:syserror.obj
 0002:000010f0       ??_C@_0BN@LKKBCCDB@address?5family?5not?5supported?$AA@ 00000001800250f0     libcpmt:syserror.obj
 0002:00001110       ??_C@_0P@LDMLAFHI@address?5in?5use?$AA@ 0000000180025110     libcpmt:syserror.obj
 0002:00001120       ??_C@_0BG@DHPCNBJB@address?5not?5available?$AA@ 0000000180025120     libcpmt:syserror.obj
 0002:00001138       ??_C@_0BC@DFIBIBIL@already?5connected?$AA@ 0000000180025138     libcpmt:syserror.obj
 0002:00001150       ??_C@_0BH@CAKOHOMI@argument?5list?5too?5long?$AA@ 0000000180025150     libcpmt:syserror.obj
 0002:00001168       ??_C@_0BH@CGIMPKIM@argument?5out?5of?5domain?$AA@ 0000000180025168     libcpmt:syserror.obj
 0002:00001180       ??_C@_0M@KGHGGJGL@bad?5address?$AA@ 0000000180025180     libcpmt:syserror.obj
 0002:00001190       ??_C@_0BE@MPJPGCEO@bad?5file?5descriptor?$AA@ 0000000180025190     libcpmt:syserror.obj
 0002:000011a8       ??_C@_0M@PMMIEFCP@bad?5message?$AA@ 00000001800251a8     libcpmt:syserror.obj
 0002:000011b8       ??_C@_0M@KPHOFDBE@broken?5pipe?$AA@ 00000001800251b8     libcpmt:syserror.obj
 0002:000011c8       ??_C@_0BD@MGNDDEGM@connection?5aborted?$AA@ 00000001800251c8     libcpmt:syserror.obj
 0002:000011e0       ??_C@_0BP@KAIHPOGN@connection?5already?5in?5progress?$AA@ 00000001800251e0     libcpmt:syserror.obj
 0002:00001200       ??_C@_0BD@PJLIIJEL@connection?5refused?$AA@ 0000000180025200     libcpmt:syserror.obj
 0002:00001218       ??_C@_0BB@IECNJNOI@connection?5reset?$AA@ 0000000180025218     libcpmt:syserror.obj
 0002:00001230       ??_C@_0BN@KDMIFEIP@destination?5address?5required?$AA@ 0000000180025230     libcpmt:syserror.obj
 0002:00001250       ??_C@_0BI@BNCLIGPB@executable?5format?5error?$AA@ 0000000180025250     libcpmt:syserror.obj
 0002:00001268       ??_C@_0P@DNAJLBJK@file?5too?5large?$AA@ 0000000180025268     libcpmt:syserror.obj
 0002:00001278       ??_C@_0BB@DHFDFGDM@host?5unreachable?$AA@ 0000000180025278     libcpmt:syserror.obj
 0002:00001290       ??_C@_0BD@JPHBMONG@identifier?5removed?$AA@ 0000000180025290     libcpmt:syserror.obj
 0002:000012a8       ??_C@_0BG@CDNPAGJK@illegal?5byte?5sequence?$AA@ 00000001800252a8     libcpmt:syserror.obj
 0002:000012c0       ??_C@_0CD@BNPLBMNA@inappropriate?5io?5control?5operati@ 00000001800252c0     libcpmt:syserror.obj
 0002:000012e8       ??_C@_0N@OHAFKDEK@invalid?5seek?$AA@ 00000001800252e8     libcpmt:syserror.obj
 0002:000012f8       ??_C@_0P@FLLDBIDK@is?5a?5directory?$AA@ 00000001800252f8     libcpmt:syserror.obj
 0002:00001308       ??_C@_0N@IFLPBIOP@message?5size?$AA@ 0000000180025308     libcpmt:syserror.obj
 0002:00001318       ??_C@_0N@KIIEAAIO@network?5down?$AA@ 0000000180025318     libcpmt:syserror.obj
 0002:00001328       ??_C@_0O@FNPDBHEE@network?5reset?$AA@ 0000000180025328     libcpmt:syserror.obj
 0002:00001338       ??_C@_0BE@IFNCKGE@network?5unreachable?$AA@ 0000000180025338     libcpmt:syserror.obj
 0002:00001350       ??_C@_0BA@PFFCAOFK@no?5buffer?5space?$AA@ 0000000180025350     libcpmt:syserror.obj
 0002:00001360       ??_C@_0BB@IEPBLJHK@no?5child?5process?$AA@ 0000000180025360     libcpmt:syserror.obj
 0002:00001378       ??_C@_07PLECNNKG@no?5link?$AA@ 0000000180025378     libcpmt:syserror.obj
 0002:00001380       ??_C@_0BF@PBGGPKKE@no?5message?5available?$AA@ 0000000180025380     libcpmt:syserror.obj
 0002:00001398       ??_C@_0L@EDOLMPAK@no?5message?$AA@ 0000000180025398     libcpmt:syserror.obj
 0002:000013a8       ??_C@_0BD@EAMBFIDF@no?5protocol?5option?$AA@ 00000001800253a8     libcpmt:syserror.obj
 0002:000013c0       ??_C@_0BE@MKFDAFMP@no?5stream?5resources?$AA@ 00000001800253c0     libcpmt:syserror.obj
 0002:000013d8       ??_C@_0BK@IMCPHCBI@no?5such?5device?5or?5address?$AA@ 00000001800253d8     libcpmt:syserror.obj
 0002:000013f8       ??_C@_0BA@ENLPPKBN@no?5such?5process?$AA@ 00000001800253f8     libcpmt:syserror.obj
 0002:00001408       ??_C@_0BA@DOCPFFJG@not?5a?5directory?$AA@ 0000000180025408     libcpmt:syserror.obj
 0002:00001418       ??_C@_0N@POEIPGGF@not?5a?5socket?$AA@ 0000000180025418     libcpmt:syserror.obj
 0002:00001428       ??_C@_0N@LGAPMMPI@not?5a?5stream?$AA@ 0000000180025428     libcpmt:syserror.obj
 0002:00001438       ??_C@_0O@GLMIBBEG@not?5connected?$AA@ 0000000180025438     libcpmt:syserror.obj
 0002:00001448       ??_C@_0O@NHEDABJP@not?5supported?$AA@ 0000000180025448     libcpmt:syserror.obj
 0002:00001458       ??_C@_0BG@KDKHOPCO@operation?5in?5progress?$AA@ 0000000180025458     libcpmt:syserror.obj
 0002:00001470       ??_C@_0BI@OHIEJAAB@operation?5not?5permitted?$AA@ 0000000180025470     libcpmt:syserror.obj
 0002:00001488       ??_C@_0BI@LNEGIFLN@operation?5not?5supported?$AA@ 0000000180025488     libcpmt:syserror.obj
 0002:000014a0       ??_C@_0BG@OEMDKMEE@operation?5would?5block?$AA@ 00000001800254a0     libcpmt:syserror.obj
 0002:000014b8       ??_C@_0L@BLPOFLNJ@owner?5dead?$AA@ 00000001800254b8     libcpmt:syserror.obj
 0002:000014c8       ??_C@_0P@FNPOCJBE@protocol?5error?$AA@ 00000001800254c8     libcpmt:syserror.obj
 0002:000014d8       ??_C@_0BH@JPPPLHJB@protocol?5not?5supported?$AA@ 00000001800254d8     libcpmt:syserror.obj
 0002:000014f0       ??_C@_0BG@EICBIHDP@read?5only?5file?5system?$AA@ 00000001800254f0     libcpmt:syserror.obj
 0002:00001508       ??_C@_0BO@BJBOMOEJ@resource?5deadlock?5would?5occur?$AA@ 0000000180025508     libcpmt:syserror.obj
 0002:00001528       ??_C@_0BE@GOIPJJHG@result?5out?5of?5range?$AA@ 0000000180025528     libcpmt:syserror.obj
 0002:00001540       ??_C@_0BG@MPLKFPAE@state?5not?5recoverable?$AA@ 0000000180025540     libcpmt:syserror.obj
 0002:00001558       ??_C@_0P@DIIFGFCG@stream?5timeout?$AA@ 0000000180025558     libcpmt:syserror.obj
 0002:00001568       ??_C@_0P@IPFDMIFL@text?5file?5busy?$AA@ 0000000180025568     libcpmt:syserror.obj
 0002:00001578       ??_C@_09KJPPMAOI@timed?5out?$AA@ 0000000180025578     libcpmt:syserror.obj
 0002:00001588       ??_C@_0BO@HACHBEKI@too?5many?5files?5open?5in?5system?$AA@ 0000000180025588     libcpmt:syserror.obj
 0002:000015a8       ??_C@_0P@HCOMKFCC@too?5many?5links?$AA@ 00000001800255a8     libcpmt:syserror.obj
 0002:000015b8       ??_C@_0BO@EFGOJEF@too?5many?5symbolic?5link?5levels?$AA@ 00000001800255b8     libcpmt:syserror.obj
 0002:000015d8       ??_C@_0BA@KGKGOOJA@value?5too?5large?$AA@ 00000001800255d8     libcpmt:syserror.obj
 0002:000015e8       ??_C@_0BE@MIEJDDNH@wrong?5protocol?5type?$AA@ 00000001800255e8     libcpmt:syserror.obj
 0002:00001608       ??_7bad_alloc@std@@6B@     0000000180025608     libcpmt:xthrow.obj
 0002:00001618       ??_C@_0P@GHFPNOJB@bad?5allocation?$AA@ 0000000180025618     libcpmt:xthrow.obj
 0002:00001628       ??_C@_17LGKOMLJ@?$AA?4?$AA?4?$AA?4?$AA?$AA@ 0000000180025628     LIBCMT:wassert.obj
 0002:00001630       ??_C@_13LBAGMAIH@?$AA?6?$AA?$AA@ 0000000180025630     LIBCMT:wassert.obj
 0002:00001634       ??_C@_15IABLJNFO@?$AA?6?$AA?6?$AA?$AA@ 0000000180025634     LIBCMT:wassert.obj
 0002:00001640       ??_C@_1CO@EAEJAADC@?$AA?$DM?$AAp?$AAr?$AAo?$AAg?$AAr?$AAa?$AAm?$AA?5?$AAn?$AAa?$AAm?$AAe?$AA?5?$AAu?$AAn?$AAk?$AAn?$AAo?$AAw?$AAn?$AA?$DO?$AA?$AA@ 0000000180025640     LIBCMT:wassert.obj
 0002:00001670       ??_C@_1EK@MBDPDCGA@?$AAM?$AAi?$AAc?$AAr?$AAo?$AAs?$AAo?$AAf?$AAt?$AA?5?$AAV?$AAi?$AAs?$AAu?$AAa?$AAl?$AA?5?$AAC?$AA?$CL?$AA?$CL?$AA?5?$AAR?$AAu?$AAn?$AAt?$AAi?$AAm?$AAe?$AA?5?$AAL?$AAi?$AAb@ 0000000180025670     LIBCMT:wassert.obj
 0002:000016bc       ??_C@_06MEIMCGCF@_hypot?$AA@ 00000001800256bc     LIBCMT:hypot.obj
 0002:000016c8       _pRawDllMain               00000001800256c8     LIBCMT:dllcrt0.obj
 0002:000016c8       _pDefaultRawDllMain        00000001800256c8     LIBCMT:dllcrt0.obj
 0002:00001718       ??_7type_info@@6B@         0000000180025718     LIBCMT:typinfo.obj
 0002:00001720       _FPinit                    0000000180025720     LIBCMT:fpinit.obj
 0002:00001730       ??_7exception@std@@6B@     0000000180025730     LIBCMT:stdexcpt.obj
 0002:00001740       ??_C@_0BC@EOODALEL@Unknown?5exception?$AA@ 0000000180025740     LIBCMT:stdexcpt.obj
 0002:00001768       ??_C@_1BI@BGOHAHKC@?$AAm?$AAs?$AAc?$AAo?$AAr?$AAe?$AAe?$AA?4?$AAd?$AAl?$AAl?$AA?$AA@ 0000000180025768     LIBCMT:crt0dat.obj
 0002:00001780       ??_C@_0P@MIGLKIOC@CorExitProcess?$AA@ 0000000180025780     LIBCMT:crt0dat.obj
 0002:00001790       ??_C@_1BG@GOEBHBDC@?$AAU?$AAS?$AAE?$AAR?$AA3?$AA2?$AA?4?$AAD?$AAL?$AAL?$AA?$AA@ 0000000180025790     LIBCMT:crtmboxw.obj
 0002:000017a8       ??_C@_0M@DLDCCGNP@MessageBoxW?$AA@ 00000001800257a8     LIBCMT:crtmboxw.obj
 0002:000017b8       ??_C@_0BA@HNOPNCHB@GetActiveWindow?$AA@ 00000001800257b8     LIBCMT:crtmboxw.obj
 0002:000017c8       ??_C@_0BD@HHGDFDBJ@GetLastActivePopup?$AA@ 00000001800257c8     LIBCMT:crtmboxw.obj
 0002:000017e0       ??_C@_0BK@DEKFELLI@GetUserObjectInformationW?$AA@ 00000001800257e0     LIBCMT:crtmboxw.obj
 0002:00001800       ??_C@_0BI@DFKBFLJE@GetProcessWindowStation?$AA@ 0000000180025800     LIBCMT:crtmboxw.obj
 0002:00001990       ??_C@_1FK@PGACCAFB@?$AAR?$AA6?$AA0?$AA0?$AA2?$AA?$AN?$AA?6?$AA?9?$AA?5?$AAf?$AAl?$AAo?$AAa?$AAt?$AAi?$AAn?$AAg?$AA?5?$AAp?$AAo?$AAi?$AAn?$AAt?$AA?5?$AAs?$AAu?$AAp?$AAp?$AAo?$AAr?$AAt?$AA?5@ 0000000180025990     LIBCMT:crt0msg.obj
 0002:000019f0       ??_C@_1FE@LLNEDJMD@?$AAR?$AA6?$AA0?$AA0?$AA8?$AA?$AN?$AA?6?$AA?9?$AA?5?$AAn?$AAo?$AAt?$AA?5?$AAe?$AAn?$AAo?$AAu?$AAg?$AAh?$AA?5?$AAs?$AAp?$AAa?$AAc?$AAe?$AA?5?$AAf?$AAo?$AAr?$AA?5?$AAa?$AAr@ 00000001800259f0     LIBCMT:crt0msg.obj
 0002:00001a50       ??_C@_1FI@HONFMGBI@?$AAR?$AA6?$AA0?$AA0?$AA9?$AA?$AN?$AA?6?$AA?9?$AA?5?$AAn?$AAo?$AAt?$AA?5?$AAe?$AAn?$AAo?$AAu?$AAg?$AAh?$AA?5?$AAs?$AAp?$AAa?$AAc?$AAe?$AA?5?$AAf?$AAo?$AAr?$AA?5?$AAe?$AAn@ 0000000180025a50     LIBCMT:crt0msg.obj
 0002:00001ab0       ??_C@_1EG@BEHAGFJD@?$AAR?$AA6?$AA0?$AA1?$AA0?$AA?$AN?$AA?6?$AA?9?$AA?5?$AAa?$AAb?$AAo?$AAr?$AAt?$AA?$CI?$AA?$CJ?$AA?5?$AAh?$AAa?$AAs?$AA?5?$AAb?$AAe?$AAe?$AAn?$AA?5?$AAc?$AAa?$AAl?$AAl?$AAe?$AAd@ 0000000180025ab0     LIBCMT:crt0msg.obj
 0002:00001b00       ??_C@_1FI@LOGNIKDM@?$AAR?$AA6?$AA0?$AA1?$AA6?$AA?$AN?$AA?6?$AA?9?$AA?5?$AAn?$AAo?$AAt?$AA?5?$AAe?$AAn?$AAo?$AAu?$AAg?$AAh?$AA?5?$AAs?$AAp?$AAa?$AAc?$AAe?$AA?5?$AAf?$AAo?$AAr?$AA?5?$AAt?$AAh@ 0000000180025b00     LIBCMT:crt0msg.obj
 0002:00001b60       ??_C@_1FK@BEOGODMC@?$AAR?$AA6?$AA0?$AA1?$AA7?$AA?$AN?$AA?6?$AA?9?$AA?5?$AAu?$AAn?$AAe?$AAx?$AAp?$AAe?$AAc?$AAt?$AAe?$AAd?$AA?5?$AAm?$AAu?$AAl?$AAt?$AAi?$AAt?$AAh?$AAr?$AAe?$AAa?$AAd?$AA?5@ 0000000180025b60     LIBCMT:crt0msg.obj
 0002:00001bc0       ??_C@_1EC@JIBHAOPH@?$AAR?$AA6?$AA0?$AA1?$AA8?$AA?$AN?$AA?6?$AA?9?$AA?5?$AAu?$AAn?$AAe?$AAx?$AAp?$AAe?$AAc?$AAt?$AAe?$AAd?$AA?5?$AAh?$AAe?$AAa?$AAp?$AA?5?$AAe?$AAr?$AAr?$AAo?$AAr?$AA?$AN?$AA?6@ 0000000180025bc0     LIBCMT:crt0msg.obj
 0002:00001c10       ??_C@_1FC@ECHBIFBC@?$AAR?$AA6?$AA0?$AA1?$AA9?$AA?$AN?$AA?6?$AA?9?$AA?5?$AAu?$AAn?$AAa?$AAb?$AAl?$AAe?$AA?5?$AAt?$AAo?$AA?5?$AAo?$AAp?$AAe?$AAn?$AA?5?$AAc?$AAo?$AAn?$AAs?$AAo?$AAl?$AAe?$AA?5@ 0000000180025c10     LIBCMT:crt0msg.obj
 0002:00001c70       ??_C@_1GK@FHCKBEFA@?$AAR?$AA6?$AA0?$AA2?$AA4?$AA?$AN?$AA?6?$AA?9?$AA?5?$AAn?$AAo?$AAt?$AA?5?$AAe?$AAn?$AAo?$AAu?$AAg?$AAh?$AA?5?$AAs?$AAp?$AAa?$AAc?$AAe?$AA?5?$AAf?$AAo?$AAr?$AA?5?$AA_?$AAo@ 0000000180025c70     LIBCMT:crt0msg.obj
 0002:00001ce0       ??_C@_1EM@MAADIHMB@?$AAR?$AA6?$AA0?$AA2?$AA5?$AA?$AN?$AA?6?$AA?9?$AA?5?$AAp?$AAu?$AAr?$AAe?$AA?5?$AAv?$AAi?$AAr?$AAt?$AAu?$AAa?$AAl?$AA?5?$AAf?$AAu?$AAn?$AAc?$AAt?$AAi?$AAo?$AAn?$AA?5?$AAc@ 0000000180025ce0     LIBCMT:crt0msg.obj
 0002:00001d30       ??_C@_1GK@MCAAGJMO@?$AAR?$AA6?$AA0?$AA2?$AA6?$AA?$AN?$AA?6?$AA?9?$AA?5?$AAn?$AAo?$AAt?$AA?5?$AAe?$AAn?$AAo?$AAu?$AAg?$AAh?$AA?5?$AAs?$AAp?$AAa?$AAc?$AAe?$AA?5?$AAf?$AAo?$AAr?$AA?5?$AAs?$AAt@ 0000000180025d30     LIBCMT:crt0msg.obj
 0002:00001da0       ??_C@_1GK@MFGOKLAG@?$AAR?$AA6?$AA0?$AA2?$AA7?$AA?$AN?$AA?6?$AA?9?$AA?5?$AAn?$AAo?$AAt?$AA?5?$AAe?$AAn?$AAo?$AAu?$AAg?$AAh?$AA?5?$AAs?$AAp?$AAa?$AAc?$AAe?$AA?5?$AAf?$AAo?$AAr?$AA?5?$AAl?$AAo@ 0000000180025da0     LIBCMT:crt0msg.obj
 0002:00001e10       ??_C@_1EK@HHFLMAOL@?$AAR?$AA6?$AA0?$AA2?$AA8?$AA?$AN?$AA?6?$AA?9?$AA?5?$AAu?$AAn?$AAa?$AAb?$AAl?$AAe?$AA?5?$AAt?$AAo?$AA?5?$AAi?$AAn?$AAi?$AAt?$AAi?$AAa?$AAl?$AAi?$AAz?$AAe?$AA?5?$AAh?$AAe@ 0000000180025e10     LIBCMT:crt0msg.obj
 0002:00001e60       ??_C@_1DO@BMFCDCD@?$AAR?$AA6?$AA0?$AA3?$AA0?$AA?$AN?$AA?6?$AA?9?$AA?5?$AAC?$AAR?$AAT?$AA?5?$AAn?$AAo?$AAt?$AA?5?$AAi?$AAn?$AAi?$AAt?$AAi?$AAa?$AAl?$AAi?$AAz?$AAe?$AAd?$AA?$AN?$AA?6?$AA?$AA@ 0000000180025e60     LIBCMT:crt0msg.obj
 0002:00001ea0       ??_C@_1MG@ENCOOIDF@?$AAR?$AA6?$AA0?$AA3?$AA1?$AA?$AN?$AA?6?$AA?9?$AA?5?$AAA?$AAt?$AAt?$AAe?$AAm?$AAp?$AAt?$AA?5?$AAt?$AAo?$AA?5?$AAi?$AAn?$AAi?$AAt?$AAi?$AAa?$AAl?$AAi?$AAz?$AAe?$AA?5?$AAt@ 0000000180025ea0     LIBCMT:crt0msg.obj
 0002:00001f70       ??_C@_1GG@GOPILAJP@?$AAR?$AA6?$AA0?$AA3?$AA2?$AA?$AN?$AA?6?$AA?9?$AA?5?$AAn?$AAo?$AAt?$AA?5?$AAe?$AAn?$AAo?$AAu?$AAg?$AAh?$AA?5?$AAs?$AAp?$AAa?$AAc?$AAe?$AA?5?$AAf?$AAo?$AAr?$AA?5?$AAl?$AAo@ 0000000180025f70     LIBCMT:crt0msg.obj
 0002:00001fe0       ??_C@_1BOO@KGEDBGAJ@?$AAR?$AA6?$AA0?$AA3?$AA3?$AA?$AN?$AA?6?$AA?9?$AA?5?$AAA?$AAt?$AAt?$AAe?$AAm?$AAp?$AAt?$AA?5?$AAt?$AAo?$AA?5?$AAu?$AAs?$AAe?$AA?5?$AAM?$AAS?$AAI?$AAL?$AA?5?$AAc?$AAo?$AAd@ 0000000180025fe0     LIBCMT:crt0msg.obj
 0002:000021d0       ??_C@_1GG@MKFPEKFO@?$AAR?$AA6?$AA0?$AA3?$AA4?$AA?$AN?$AA?6?$AA?9?$AA?5?$AAi?$AAn?$AAc?$AAo?$AAn?$AAs?$AAi?$AAs?$AAt?$AAe?$AAn?$AAt?$AA?5?$AAo?$AAn?$AAe?$AAx?$AAi?$AAt?$AA?5?$AAb?$AAe?$AAg@ 00000001800261d0     LIBCMT:crt0msg.obj
 0002:00002238       ??_C@_1BO@BFCDCGC@?$AAD?$AAO?$AAM?$AAA?$AAI?$AAN?$AA?5?$AAe?$AAr?$AAr?$AAo?$AAr?$AA?$AN?$AA?6?$AA?$AA@ 0000000180026238     LIBCMT:crt0msg.obj
 0002:00002258       ??_C@_1BK@KMOMNAAI@?$AAS?$AAI?$AAN?$AAG?$AA?5?$AAe?$AAr?$AAr?$AAo?$AAr?$AA?$AN?$AA?6?$AA?$AA@ 0000000180026258     LIBCMT:crt0msg.obj
 0002:00002278       ??_C@_1BM@JBBEPPHI@?$AAT?$AAL?$AAO?$AAS?$AAS?$AA?5?$AAe?$AAr?$AAr?$AAo?$AAr?$AA?$AN?$AA?6?$AA?$AA@ 0000000180026278     LIBCMT:crt0msg.obj
 0002:00002294       ??_C@_15JNBOKNOG@?$AA?$AN?$AA?6?$AA?$AA@ 0000000180026294     LIBCMT:crt0msg.obj
 0002:000022a0       ??_C@_1BO@BKOMIGKJ@?$AAr?$AAu?$AAn?$AAt?$AAi?$AAm?$AAe?$AA?5?$AAe?$AAr?$AAr?$AAo?$AAr?$AA?5?$AA?$AA@ 00000001800262a0     LIBCMT:crt0msg.obj
 0002:000022c0       ??_C@_1DE@JNGNBFGO@?$AAR?$AAu?$AAn?$AAt?$AAi?$AAm?$AAe?$AA?5?$AAE?$AAr?$AAr?$AAo?$AAr?$AA?$CB?$AA?6?$AA?6?$AAP?$AAr?$AAo?$AAg?$AAr?$AAa?$AAm?$AA?3?$AA?5?$AA?$AA@ 00000001800262c0     LIBCMT:crt0msg.obj
 0002:00002318       ??_C@_1M@HPNHIDJI@?$AAj?$AAa?$AA?9?$AAJ?$AAP?$AA?$AA@ 0000000180026318     LIBCMT:mbctype.obj
 0002:00002328       ??_C@_1M@BIBDDEMK@?$AAz?$AAh?$AA?9?$AAC?$AAN?$AA?$AA@ 0000000180026328     LIBCMT:mbctype.obj
 0002:00002338       ??_C@_1M@JLOOOEGK@?$AAk?$AAo?$AA?9?$AAK?$AAR?$AA?$AA@ 0000000180026338     LIBCMT:mbctype.obj
 0002:00002348       ??_C@_1M@CLNBBOPM@?$AAz?$AAh?$AA?9?$AAT?$AAW?$AA?$AA@ 0000000180026348     LIBCMT:mbctype.obj
 0002:00002354       ??_C@_03KOEHGMDN@Sun?$AA@  0000000180026354     LIBCMT:nlsdata.obj
 0002:00002358       ??_C@_03PDAGKDH@Mon?$AA@   0000000180026358     LIBCMT:nlsdata.obj
 0002:0000235c       ??_C@_03NAGEINEP@Tue?$AA@  000000018002635c     LIBCMT:nlsdata.obj
 0002:00002360       ??_C@_03MHOMLAJA@Wed?$AA@  0000000180026360     LIBCMT:nlsdata.obj
 0002:00002364       ??_C@_03IOFIKPDN@Thu?$AA@  0000000180026364     LIBCMT:nlsdata.obj
 0002:00002368       ??_C@_03IDIOELNC@Fri?$AA@  0000000180026368     LIBCMT:nlsdata.obj
 0002:0000236c       ??_C@_03FEFJNEK@Sat?$AA@   000000018002636c     LIBCMT:nlsdata.obj
 0002:00002370       ??_C@_06OOPIFAJ@Sunday?$AA@ 0000000180026370     LIBCMT:nlsdata.obj
 0002:00002378       ??_C@_06JLEDEDGH@Monday?$AA@ 0000000180026378     LIBCMT:nlsdata.obj
 0002:00002380       ??_C@_07BAAGCFCM@Tuesday?$AA@ 0000000180026380     LIBCMT:nlsdata.obj
 0002:00002388       ??_C@_09DLIGFAKA@Wednesday?$AA@ 0000000180026388     LIBCMT:nlsdata.obj
 0002:00002398       ??_C@_08HACCIKIA@Thursday?$AA@ 0000000180026398     LIBCMT:nlsdata.obj
 0002:000023a4       ??_C@_06JECMNKMI@Friday?$AA@ 00000001800263a4     LIBCMT:nlsdata.obj
 0002:000023b0       ??_C@_08INBOOONO@Saturday?$AA@ 00000001800263b0     LIBCMT:nlsdata.obj
 0002:000023bc       ??_C@_03JIHJHPIE@Jan?$AA@  00000001800263bc     LIBCMT:nlsdata.obj
 0002:000023c0       ??_C@_03HJBDCHOM@Feb?$AA@  00000001800263c0     LIBCMT:nlsdata.obj
 0002:000023c4       ??_C@_03ODNJBKGA@Mar?$AA@  00000001800263c4     LIBCMT:nlsdata.obj
 0002:000023c8       ??_C@_03LEOLGMJP@Apr?$AA@  00000001800263c8     LIBCMT:nlsdata.obj
 0002:000023cc       ??_C@_03CNMDKL@May?$AA@    00000001800263cc     LIBCMT:nlsdata.obj
 0002:000023d0       ??_C@_03IDFGHECI@Jun?$AA@  00000001800263d0     LIBCMT:nlsdata.obj
 0002:000023d4       ??_C@_03LBGABGKK@Jul?$AA@  00000001800263d4     LIBCMT:nlsdata.obj
 0002:000023d8       ??_C@_03IFJFEIGA@Aug?$AA@  00000001800263d8     LIBCMT:nlsdata.obj
 0002:000023dc       ??_C@_03GGCAPAJC@Sep?$AA@  00000001800263dc     LIBCMT:nlsdata.obj
 0002:000023e0       ??_C@_03BMAOKBAD@Oct?$AA@  00000001800263e0     LIBCMT:nlsdata.obj
 0002:000023e4       ??_C@_03JPJOFNIA@Nov?$AA@  00000001800263e4     LIBCMT:nlsdata.obj
 0002:000023e8       ??_C@_03MKABNOCG@Dec?$AA@  00000001800263e8     LIBCMT:nlsdata.obj
 0002:000023f0       ??_C@_07CGJPFGJA@January?$AA@ 00000001800263f0     LIBCMT:nlsdata.obj
 0002:000023f8       ??_C@_08GNJGEPFN@February?$AA@ 00000001800263f8     LIBCMT:nlsdata.obj
 0002:00002404       ??_C@_05HPCKOFNC@March?$AA@ 0000000180026404     LIBCMT:nlsdata.obj
 0002:0000240c       ??_C@_05DMJDNLEJ@April?$AA@ 000000018002640c     LIBCMT:nlsdata.obj
 0002:00002414       ??_C@_04CNLMGBGM@June?$AA@ 0000000180026414     LIBCMT:nlsdata.obj
 0002:0000241c       ??_C@_04MIEPOIFP@July?$AA@ 000000018002641c     LIBCMT:nlsdata.obj
 0002:00002424       ??_C@_06LBBHFDDG@August?$AA@ 0000000180026424     LIBCMT:nlsdata.obj
 0002:00002430       ??_C@_09BHHEALKD@September?$AA@ 0000000180026430     LIBCMT:nlsdata.obj
 0002:00002440       ??_C@_07JJNFCEND@October?$AA@ 0000000180026440     LIBCMT:nlsdata.obj
 0002:00002448       ??_C@_08HCHEGEOA@November?$AA@ 0000000180026448     LIBCMT:nlsdata.obj
 0002:00002458       ??_C@_08EDHMEBNP@December?$AA@ 0000000180026458     LIBCMT:nlsdata.obj
 0002:00002464       ??_C@_02DEDBPAFC@AM?$AA@   0000000180026464     LIBCMT:nlsdata.obj
 0002:00002468       ??_C@_02CJNFDJBF@PM?$AA@   0000000180026468     LIBCMT:nlsdata.obj
 0002:00002470       ??_C@_08BPBNCDIB@MM?1dd?1yy?$AA@ 0000000180026470     LIBCMT:nlsdata.obj
 0002:00002480       ??_C@_0BE@CKGJFCPC@dddd?0?5MMMM?5dd?0?5yyyy?$AA@ 0000000180026480     LIBCMT:nlsdata.obj
 0002:00002498       ??_C@_08JCCMCCIL@HH?3mm?3ss?$AA@ 0000000180026498     LIBCMT:nlsdata.obj
 0002:000024a8       ??_C@_17MBGCMIPB@?$AAS?$AAu?$AAn?$AA?$AA@ 00000001800264a8     LIBCMT:nlsdata.obj
 0002:000024b0       ??_C@_17KBOMKBF@?$AAM?$AAo?$AAn?$AA?$AA@ 00000001800264b0     LIBCMT:nlsdata.obj
 0002:000024b8       ??_C@_17BMKGEGOJ@?$AAT?$AAu?$AAe?$AA?$AA@ 00000001800264b8     LIBCMT:nlsdata.obj
 0002:000024c0       ??_C@_17CJEDCEPE@?$AAW?$AAe?$AAd?$AA?$AA@ 00000001800264c0     LIBCMT:nlsdata.obj
 0002:000024c8       ??_C@_17PDPHAADD@?$AAT?$AAh?$AAu?$AA?$AA@ 00000001800264c8     LIBCMT:nlsdata.obj
 0002:000024d0       ??_C@_17HFOLPPLP@?$AAF?$AAr?$AAi?$AA?$AA@ 00000001800264d0     LIBCMT:nlsdata.obj
 0002:000024d8       ??_C@_17GGIBDPIH@?$AAS?$AAa?$AAt?$AA?$AA@ 00000001800264d8     LIBCMT:nlsdata.obj
 0002:000024e0       ??_C@_1O@IHNHDHPB@?$AAS?$AAu?$AAn?$AAd?$AAa?$AAy?$AA?$AA@ 00000001800264e0     LIBCMT:nlsdata.obj
 0002:000024f0       ??_C@_1O@MMNBFLIA@?$AAM?$AAo?$AAn?$AAd?$AAa?$AAy?$AA?$AA@ 00000001800264f0     LIBCMT:nlsdata.obj
 0002:00002500       ??_C@_1BA@ENFBFFEK@?$AAT?$AAu?$AAe?$AAs?$AAd?$AAa?$AAy?$AA?$AA@ 0000000180026500     LIBCMT:nlsdata.obj
 0002:00002510       ??_C@_1BE@EBOGMDOH@?$AAW?$AAe?$AAd?$AAn?$AAe?$AAs?$AAd?$AAa?$AAy?$AA?$AA@ 0000000180026510     LIBCMT:nlsdata.obj
 0002:00002528       ??_C@_1BC@HHMNLIHE@?$AAT?$AAh?$AAu?$AAr?$AAs?$AAd?$AAa?$AAy?$AA?$AA@ 0000000180026528     LIBCMT:nlsdata.obj
 0002:00002540       ??_C@_1O@PDICJHAG@?$AAF?$AAr?$AAi?$AAd?$AAa?$AAy?$AA?$AA@ 0000000180026540     LIBCMT:nlsdata.obj
 0002:00002550       ??_C@_1BC@ENMNNPAJ@?$AAS?$AAa?$AAt?$AAu?$AAr?$AAd?$AAa?$AAy?$AA?$AA@ 0000000180026550     LIBCMT:nlsdata.obj
 0002:00002568       ??_C@_17DKNBKCHM@?$AAJ?$AAa?$AAn?$AA?$AA@ 0000000180026568     LIBCMT:nlsdata.obj
 0002:00002570       ??_C@_17LMDJEKJN@?$AAF?$AAe?$AAb?$AA?$AA@ 0000000180026570     LIBCMT:nlsdata.obj
 0002:00002578       ??_C@_17CKNLEDEC@?$AAM?$AAa?$AAr?$AA?$AA@ 0000000180026578     LIBCMT:nlsdata.obj
 0002:00002580       ??_C@_17LFPOIHDD@?$AAA?$AAp?$AAr?$AA?$AA@ 0000000180026580     LIBCMT:nlsdata.obj
 0002:00002588       ??_C@_17PNNKMEED@?$AAM?$AAa?$AAy?$AA?$AA@ 0000000180026588     LIBCMT:nlsdata.obj
 0002:00002590       ??_C@_17KCJGOCPB@?$AAJ?$AAu?$AAn?$AA?$AA@ 0000000180026590     LIBCMT:nlsdata.obj
 0002:00002598       ??_C@_17IJPCKHK@?$AAJ?$AAu?$AAl?$AA?$AA@ 0000000180026598     LIBCMT:nlsdata.obj
 0002:000025a0       ??_C@_17ICPELBCN@?$AAA?$AAu?$AAg?$AA?$AA@ 00000001800265a0     LIBCMT:nlsdata.obj
 0002:000025a8       ??_C@_17HCHCOKMG@?$AAS?$AAe?$AAp?$AA?$AA@ 00000001800265a8     LIBCMT:nlsdata.obj
 0002:000025b0       ??_C@_17FNLKOI@?$AAO?$AAc?$AAt?$AA?$AA@ 00000001800265b0     LIBCMT:nlsdata.obj
 0002:000025b8       ??_C@_17BBDMLCIG@?$AAN?$AAo?$AAv?$AA?$AA@ 00000001800265b8     LIBCMT:nlsdata.obj
 0002:000025c0       ??_C@_17EGKACKIF@?$AAD?$AAe?$AAc?$AA?$AA@ 00000001800265c0     LIBCMT:nlsdata.obj
 0002:000025c8       ??_C@_1BA@EFMEIEBA@?$AAJ?$AAa?$AAn?$AAu?$AAa?$AAr?$AAy?$AA?$AA@ 00000001800265c8     LIBCMT:nlsdata.obj
 0002:000025d8       ??_C@_1BC@JGDDFFAM@?$AAF?$AAe?$AAb?$AAr?$AAu?$AAa?$AAr?$AAy?$AA?$AA@ 00000001800265d8     LIBCMT:nlsdata.obj
 0002:000025f0       ??_C@_1M@IKEENEDF@?$AAM?$AAa?$AAr?$AAc?$AAh?$AA?$AA@ 00000001800265f0     LIBCMT:nlsdata.obj
 0002:00002600       ??_C@_1M@GJNLMHFD@?$AAA?$AAp?$AAr?$AAi?$AAl?$AA?$AA@ 0000000180026600     LIBCMT:nlsdata.obj
 0002:00002610       ??_C@_19EPFLPGAP@?$AAJ?$AAu?$AAn?$AAe?$AA?$AA@ 0000000180026610     LIBCMT:nlsdata.obj
 0002:00002620       ??_C@_19BIFMLPCD@?$AAJ?$AAu?$AAl?$AAy?$AA?$AA@ 0000000180026620     LIBCMT:nlsdata.obj
 0002:00002630       ??_C@_1O@PAHLKOAC@?$AAA?$AAu?$AAg?$AAu?$AAs?$AAt?$AA?$AA@ 0000000180026630     LIBCMT:nlsdata.obj
 0002:00002640       ??_C@_1BE@DKAAMBJL@?$AAS?$AAe?$AAp?$AAt?$AAe?$AAm?$AAb?$AAe?$AAr?$AA?$AA@ 0000000180026640     LIBCMT:nlsdata.obj
 0002:00002658       ??_C@_1BA@EPANDLNG@?$AAO?$AAc?$AAt?$AAo?$AAb?$AAe?$AAr?$AA?$AA@ 0000000180026658     LIBCMT:nlsdata.obj
 0002:00002668       ??_C@_1BC@BGLIFPF@?$AAN?$AAo?$AAv?$AAe?$AAm?$AAb?$AAe?$AAr?$AA?$AA@ 0000000180026668     LIBCMT:nlsdata.obj
 0002:00002680       ??_C@_1BC@FEMKIFH@?$AAD?$AAe?$AAc?$AAe?$AAm?$AAb?$AAe?$AAr?$AA?$AA@ 0000000180026680     LIBCMT:nlsdata.obj
 0002:00002694       ??_C@_15ODEHAHHF@?$AAA?$AAM?$AA?$AA@ 0000000180026694     LIBCMT:nlsdata.obj
 0002:0000269c       ??_C@_15CLMNNGEL@?$AAP?$AAM?$AA?$AA@ 000000018002669c     LIBCMT:nlsdata.obj
 0002:000026a8       ??_C@_1BC@IEBCMHCM@?$AAM?$AAM?$AA?1?$AAd?$AAd?$AA?1?$AAy?$AAy?$AA?$AA@ 00000001800266a8     LIBCMT:nlsdata.obj
 0002:000026c0       ??_C@_1CI@KNAKOEBC@?$AAd?$AAd?$AAd?$AAd?$AA?0?$AA?5?$AAM?$AAM?$AAM?$AAM?$AA?5?$AAd?$AAd?$AA?0?$AA?5?$AAy?$AAy?$AAy?$AAy?$AA?$AA@ 00000001800266c0     LIBCMT:nlsdata.obj
 0002:000026e8       ??_C@_1BC@GDGBMEMK@?$AAH?$AAH?$AA?3?$AAm?$AAm?$AA?3?$AAs?$AAs?$AA?$AA@ 00000001800266e8     LIBCMT:nlsdata.obj
 0002:00002700       ??_C@_1M@BMHNFIME@?$AAe?$AAn?$AA?9?$AAU?$AAS?$AA?$AA@ 0000000180026700     LIBCMT:nlsdata.obj
 0002:00002790       _XcptActTab                0000000180026790     LIBCMT:winxfltr.obj
 0002:00002850       _XcptActTabCount           0000000180026850     LIBCMT:winxfltr.obj
 0002:00002854       _XcptActTabSize            0000000180026854     LIBCMT:winxfltr.obj
 0002:00002858       _First_FPE_Indx            0000000180026858     LIBCMT:winxfltr.obj
 0002:0000285c       _Num_FPE                   000000018002685c     LIBCMT:winxfltr.obj
 0002:00002860       ??_C@_1BK@MGMFAEKH@?$AAk?$AAe?$AAr?$AAn?$AAe?$AAl?$AA3?$AA2?$AA?4?$AAd?$AAl?$AAl?$AA?$AA@ 0000000180026860     LIBCMT:winapisupp.obj
 0002:00002880       ??_C@_08KNHFBNJ@FlsAlloc?$AA@ 0000000180026880     LIBCMT:winapisupp.obj
 0002:00002890       ??_C@_07PEJMOBNF@FlsFree?$AA@ 0000000180026890     LIBCMT:winapisupp.obj
 0002:00002898       ??_C@_0M@GDNOONDI@FlsGetValue?$AA@ 0000000180026898     LIBCMT:winapisupp.obj
 0002:000028a8       ??_C@_0M@JCPCPOEF@FlsSetValue?$AA@ 00000001800268a8     LIBCMT:winapisupp.obj
 0002:000028b8       ??_C@_0BM@HCFOFFN@InitializeCriticalSectionEx?$AA@ 00000001800268b8     LIBCMT:winapisupp.obj
 0002:000028d8       ??_C@_0P@DLHPPCNH@CreateEventExW?$AA@ 00000001800268d8     LIBCMT:winapisupp.obj
 0002:000028e8       ??_C@_0BD@KIEEOEEH@CreateSemaphoreExW?$AA@ 00000001800268e8     LIBCMT:winapisupp.obj
 0002:00002900       ??_C@_0BI@BKLFFAPO@SetThreadStackGuarantee?$AA@ 0000000180026900     LIBCMT:winapisupp.obj
 0002:00002918       ??_C@_0BG@OGFAJCKC@CreateThreadpoolTimer?$AA@ 0000000180026918     LIBCMT:winapisupp.obj
 0002:00002930       ??_C@_0BD@LPLEMMDI@SetThreadpoolTimer?$AA@ 0000000180026930     LIBCMT:winapisupp.obj
 0002:00002948       ??_C@_0CA@FMNJENH@WaitForThreadpoolTimerCallbacks?$AA@ 0000000180026948     LIBCMT:winapisupp.obj
 0002:00002968       ??_C@_0BF@DCFCCNOC@CloseThreadpoolTimer?$AA@ 0000000180026968     LIBCMT:winapisupp.obj
 0002:00002980       ??_C@_0BF@FLABGKKM@CreateThreadpoolWait?$AA@ 0000000180026980     LIBCMT:winapisupp.obj
 0002:00002998       ??_C@_0BC@MGCOHNA@SetThreadpoolWait?$AA@ 0000000180026998     LIBCMT:winapisupp.obj
 0002:000029b0       ??_C@_0BE@OCIOMIMP@CloseThreadpoolWait?$AA@ 00000001800269b0     LIBCMT:winapisupp.obj
 0002:000029c8       ??_C@_0BJ@LKGHFHBO@FlushProcessWriteBuffers?$AA@ 00000001800269c8     LIBCMT:winapisupp.obj
 0002:000029e8       ??_C@_0BP@KALKKPMO@FreeLibraryWhenCallbackReturns?$AA@ 00000001800269e8     LIBCMT:winapisupp.obj
 0002:00002a08       ??_C@_0BK@DFNBACLA@GetCurrentProcessorNumber?$AA@ 0000000180026a08     LIBCMT:winapisupp.obj
 0002:00002a28       ??_C@_0BP@KHGALBC@GetLogicalProcessorInformation?$AA@ 0000000180026a28     LIBCMT:winapisupp.obj
 0002:00002a48       ??_C@_0BE@FKKLLFLM@CreateSymbolicLinkW?$AA@ 0000000180026a48     LIBCMT:winapisupp.obj
 0002:00002a60       ??_C@_0BJ@OHNKDLIJ@SetDefaultDllDirectories?$AA@ 0000000180026a60     LIBCMT:winapisupp.obj
 0002:00002a80       ??_C@_0BE@LJANKFHF@EnumSystemLocalesEx?$AA@ 0000000180026a80     LIBCMT:winapisupp.obj
 0002:00002a98       ??_C@_0BA@IHGNDAEB@CompareStringEx?$AA@ 0000000180026a98     LIBCMT:winapisupp.obj
 0002:00002aa8       ??_C@_0BA@EPCJIIPD@GetDateFormatEx?$AA@ 0000000180026aa8     LIBCMT:winapisupp.obj
 0002:00002ab8       ??_C@_0BA@ONOKGCMP@GetLocaleInfoEx?$AA@ 0000000180026ab8     LIBCMT:winapisupp.obj
 0002:00002ac8       ??_C@_0BA@CIJJKCJJ@GetTimeFormatEx?$AA@ 0000000180026ac8     LIBCMT:winapisupp.obj
 0002:00002ad8       ??_C@_0BJ@PBCCBIPI@GetUserDefaultLocaleName?$AA@ 0000000180026ad8     LIBCMT:winapisupp.obj
 0002:00002af8       ??_C@_0BC@CELBKLLA@IsValidLocaleName?$AA@ 0000000180026af8     LIBCMT:winapisupp.obj
 0002:00002b10       ??_C@_0O@KKBNKAPF@LCMapStringEx?$AA@ 0000000180026b10     LIBCMT:winapisupp.obj
 0002:00002b20       ??_C@_0BE@JOGNEJCI@GetCurrentPackageId?$AA@ 0000000180026b20     LIBCMT:winapisupp.obj
 0002:00002b38       ??_C@_0P@CDHHOHKP@GetTickCount64?$AA@ 0000000180026b38     LIBCMT:winapisupp.obj
 0002:00002b48       ??_C@_0BO@KPCLFDJJ@GetFileInformationByHandleExW?$AA@ 0000000180026b48     LIBCMT:winapisupp.obj
 0002:00002b68       ??_C@_0BM@MHIDLABK@SetFileInformationByHandleW?$AA@ 0000000180026b68     LIBCMT:winapisupp.obj
 0002:00002b88       _pDestructExceptionObject  0000000180026b88     LIBCMT:frame.obj
 0002:00002b90       ??_C@_05KLBDPFGC@e?$CL000?$AA@ 0000000180026b90     LIBCMT:cvt.obj
 0002:00002b98       __real@0000000000000000    0000000180026b98     LIBCMT:cvt.obj
 0002:00002ba0       LcidToLocaleNameTable      0000000180026ba0     LIBCMT:winapinls.obj
 0002:000039e0       LocaleNameToIndexTable     00000001800279e0     LIBCMT:winapinls.obj
 0002:00004820       ??_C@_15EMKDOKLE@?$AAa?$AAr?$AA?$AA@ 0000000180028820     LIBCMT:winapinls.obj
 0002:00004828       ??_C@_15KNPADPLH@?$AAb?$AAg?$AA?$AA@ 0000000180028828     LIBCMT:winapinls.obj
 0002:00004830       ??_C@_15EDMHLDMO@?$AAc?$AAa?$AA?$AA@ 0000000180028830     LIBCMT:winapinls.obj
 0002:00004838       ??_C@_1O@BPEAJADD@?$AAz?$AAh?$AA?9?$AAC?$AAH?$AAS?$AA?$AA@ 0000000180028838     LIBCMT:winapinls.obj
 0002:00004848       ??_C@_15LJNHCMNK@?$AAc?$AAs?$AA?$AA@ 0000000180028848     LIBCMT:winapinls.obj
 0002:00004850       ??_C@_15FOMCIDHG@?$AAd?$AAa?$AA?$AA@ 0000000180028850     LIBCMT:winapinls.obj
 0002:00004858       ??_C@_15NBKABECB@?$AAd?$AAe?$AA?$AA@ 0000000180028858     LIBCMT:winapinls.obj
 0002:00004860       ??_C@_15GHPEIIAO@?$AAe?$AAl?$AA?$AA@ 0000000180028860     LIBCMT:winapinls.obj
 0002:00004868       ??_C@_15MNPNEAIF@?$AAe?$AAn?$AA?$AA@ 0000000180028868     LIBCMT:winapinls.obj
 0002:00004870       ??_C@_15GPIOMPMH@?$AAe?$AAs?$AA?$AA@ 0000000180028870     LIBCMT:winapinls.obj
 0002:00004878       ??_C@_15NGLOAKJC@?$AAf?$AAi?$AA?$AA@ 0000000180028878     LIBCMT:winapinls.obj
 0002:00004880       ??_C@_15FBKGNKAM@?$AAf?$AAr?$AA?$AA@ 0000000180028880     LIBCMT:winapinls.obj
 0002:00004888       ??_C@_15KGGCNEFK@?$AAh?$AAe?$AA?$AA@ 0000000180028888     LIBCMT:winapinls.obj
 0002:00004890       ??_C@_15PGHLIDMF@?$AAh?$AAu?$AA?$AA@ 0000000180028890     LIBCMT:winapinls.obj
 0002:00004898       ??_C@_15BIEMAPLM@?$AAi?$AAs?$AA?$AA@ 0000000180028898     LIBCMT:winapinls.obj
 0002:000048a0       ??_C@_15IFJLDHAF@?$AAi?$AAt?$AA?$AA@ 00000001800288a0     LIBCMT:winapinls.obj
 0002:000048a8       ??_C@_15GEMIOCAG@?$AAj?$AAa?$AA?$AA@ 00000001800288a8     LIBCMT:winapinls.obj
 0002:000048b0       ??_C@_15EPELEGJA@?$AAk?$AAo?$AA?$AA@ 00000001800288b0     LIBCMT:winapinls.obj
 0002:000048b8       ??_C@_15NDDHIMN@?$AAn?$AAl?$AA?$AA@ 00000001800288b8     LIBCMT:winapinls.obj
 0002:000048c0       ??_C@_15BPIGNHCD@?$AAn?$AAo?$AA?$AA@ 00000001800288c0     LIBCMT:winapinls.obj
 0002:000048c8       ??_C@_15DEOPBLCG@?$AAp?$AAl?$AA?$AA@ 00000001800288c8     LIBCMT:winapinls.obj
 0002:000048d0       ??_C@_15KBECGEFG@?$AAp?$AAt?$AA?$AA@ 00000001800288d0     LIBCMT:winapinls.obj
 0002:000048d8       ??_C@_15GLJCBFMD@?$AAr?$AAo?$AA?$AA@ 00000001800288d8     LIBCMT:winapinls.obj
 0002:000048e0       ??_C@_15FEDGKCDI@?$AAr?$AAu?$AA?$AA@ 00000001800288e0     LIBCMT:winapinls.obj
 0002:000048e8       ??_C@_15GLKMLLHM@?$AAh?$AAr?$AA?$AA@ 00000001800288e8     LIBCMT:winapinls.obj
 0002:000048f0       ??_C@_15CPKMFBDB@?$AAs?$AAk?$AA?$AA@ 00000001800288f0     LIBCMT:winapinls.obj
 0002:000048f8       ??_C@_15BAAIOGMK@?$AAs?$AAq?$AA?$AA@ 00000001800288f8     LIBCMT:winapinls.obj
 0002:00004900       ??_C@_15INNPNOHD@?$AAs?$AAv?$AA?$AA@ 0000000180028900     LIBCMT:winapinls.obj
 0002:00004908       ??_C@_15CABMMOGH@?$AAt?$AAh?$AA?$AA@ 0000000180028908     LIBCMT:winapinls.obj
 0002:00004910       ??_C@_15BPLIHJJM@?$AAt?$AAr?$AA?$AA@ 0000000180028910     LIBCMT:winapinls.obj
 0002:00004918       ??_C@_15NEOEKKDJ@?$AAu?$AAr?$AA?$AA@ 0000000180028918     LIBCMT:winapinls.obj
 0002:00004920       ??_C@_15NFICGAJK@?$AAi?$AAd?$AA?$AA@ 0000000180028920     LIBCMT:winapinls.obj
 0002:00004928       ??_C@_15PJPFLCCM@?$AAu?$AAk?$AA?$AA@ 0000000180028928     LIBCMT:winapinls.obj
 0002:00004930       ??_C@_15HPJPHDM@?$AAb?$AAe?$AA?$AA@ 0000000180028930     LIBCMT:winapinls.obj
 0002:00004938       ??_C@_15LCHLGJII@?$AAs?$AAl?$AA?$AA@ 0000000180028938     LIBCMT:winapinls.obj
 0002:00004940       ??_C@_15PCFJPHHO@?$AAe?$AAt?$AA?$AA@ 0000000180028940     LIBCMT:winapinls.obj
 0002:00004948       ??_C@_15HPFPGODN@?$AAl?$AAv?$AA?$AA@ 0000000180028948     LIBCMT:winapinls.obj
 0002:00004950       ??_C@_15NFFGKGLG@?$AAl?$AAt?$AA?$AA@ 0000000180028950     LIBCMT:winapinls.obj
 0002:00004958       ??_C@_15BDAKCCHN@?$AAf?$AAa?$AA?$AA@ 0000000180028958     LIBCMT:winapinls.obj
 0002:00004960       ??_C@_15NFGIAIAJ@?$AAv?$AAi?$AA?$AA@ 0000000180028960     LIBCMT:winapinls.obj
 0002:00004968       ??_C@_15LMKNDMHN@?$AAh?$AAy?$AA?$AA@ 0000000180028968     LIBCMT:winapinls.obj
 0002:00004970       ??_C@_15IJBHMCFL@?$AAa?$AAz?$AA?$AA@ 0000000180028970     LIBCMT:winapinls.obj
 0002:00004978       ??_C@_15EKOFJABL@?$AAe?$AAu?$AA?$AA@ 0000000180028978     LIBCMT:winapinls.obj
 0002:00004980       ??_C@_15BGHADCNK@?$AAm?$AAk?$AA?$AA@ 0000000180028980     LIBCMT:winapinls.obj
 0002:00004988       ??_C@_15JDNICKHM@?$AAa?$AAf?$AA?$AA@ 0000000180028988     LIBCMT:winapinls.obj
 0002:00004990       ??_C@_15KPJEDBKD@?$AAk?$AAa?$AA?$AA@ 0000000180028990     LIBCMT:winapinls.obj
 0002:00004998       ??_C@_15PDNFFFEO@?$AAf?$AAo?$AA?$AA@ 0000000180028998     LIBCMT:winapinls.obj
 0002:000049a0       ??_C@_15OMLEGLOC@?$AAh?$AAi?$AA?$AA@ 00000001800289a0     LIBCMT:winapinls.obj
 0002:000049a8       ??_C@_15IDNNENKK@?$AAm?$AAs?$AA?$AA@ 00000001800289a8     LIBCMT:winapinls.obj
 0002:000049b0       ??_C@_15MACJNBMH@?$AAk?$AAk?$AA?$AA@ 00000001800289b0     LIBCMT:winapinls.obj
 0002:000049b8       ??_C@_15DKDJEOND@?$AAk?$AAy?$AA?$AA@ 00000001800289b8     LIBCMT:winapinls.obj
 0002:000049c0       ??_C@_15DFGDLJBG@?$AAs?$AAw?$AA?$AA@ 00000001800289c0     LIBCMT:winapinls.obj
 0002:000049c8       ??_C@_15BBFAICNG@?$AAu?$AAz?$AA?$AA@ 00000001800289c8     LIBCMT:winapinls.obj
 0002:000049d0       ??_C@_15DKNDCGEA@?$AAt?$AAt?$AA?$AA@ 00000001800289d0     LIBCMT:winapinls.obj
 0002:000049d8       ??_C@_15MGIFMDPL@?$AAp?$AAa?$AA?$AA@ 00000001800289d8     LIBCMT:winapinls.obj
 0002:000049e0       ??_C@_15HCNDBBA@?$AAg?$AAu?$AA?$AA@ 00000001800289e0     LIBCMT:winapinls.obj
 0002:000049e8       ??_C@_15FNBEIBON@?$AAt?$AAa?$AA?$AA@ 00000001800289e8     LIBCMT:winapinls.obj
 0002:000049f0       ??_C@_15NCHGBGLK@?$AAt?$AAe?$AA?$AA@ 00000001800289f0     LIBCMT:winapinls.obj
 0002:000049f8       ??_C@_15PHPHCBPF@?$AAk?$AAn?$AA?$AA@ 00000001800289f8     LIBCMT:winapinls.obj
 0002:00004a00       ??_C@_15DLGBCKMP@?$AAm?$AAr?$AA?$AA@ 0000000180028a00     LIBCMT:winapinls.obj
 0002:00004a08       ??_C@_15EABBLBFF@?$AAs?$AAa?$AA?$AA@ 0000000180028a08     LIBCMT:winapinls.obj
 0002:00004a10       ??_C@_15CBKOMCOI@?$AAm?$AAn?$AA?$AA@ 0000000180028a10     LIBCMT:winapinls.obj
 0002:00004a18       ??_C@_15CKDMCJAF@?$AAg?$AAl?$AA?$AA@ 0000000180028a18     LIBCMT:winapinls.obj
 0002:00004a20       ??_C@_17CNJFBPG@?$AAk?$AAo?$AAk?$AA?$AA@ 0000000180028a20     LIBCMT:winapinls.obj
 0002:00004a28       ??_C@_17FFBJICPL@?$AAs?$AAy?$AAr?$AA?$AA@ 0000000180028a28     LIBCMT:winapinls.obj
 0002:00004a30       ??_C@_17KPNDCPAF@?$AAd?$AAi?$AAv?$AA?$AA@ 0000000180028a30     LIBCMT:winapinls.obj
 0002:00004a38       ??_C@_11LOCGONAA@?$AA?$AA@ 0000000180028a38     LIBCMT:winapinls.obj
 0002:00004a40       ??_C@_1M@OKAHONE@?$AAa?$AAr?$AA?9?$AAS?$AAA?$AA?$AA@ 0000000180028a40     LIBCMT:winapinls.obj
 0002:00004a50       ??_C@_1M@FFFIGIGK@?$AAb?$AAg?$AA?9?$AAB?$AAG?$AA?$AA@ 0000000180028a50     LIBCMT:winapinls.obj
 0002:00004a60       ??_C@_1M@BJNKEDC@?$AAc?$AAa?$AA?9?$AAE?$AAS?$AA?$AA@ 0000000180028a60     LIBCMT:winapinls.obj
 0002:00004a70       ??_C@_1M@IJJHFJHA@?$AAc?$AAs?$AA?9?$AAC?$AAZ?$AA?$AA@ 0000000180028a70     LIBCMT:winapinls.obj
 0002:00004a80       ??_C@_1M@CLPEOBGI@?$AAd?$AAa?$AA?9?$AAD?$AAK?$AA?$AA@ 0000000180028a80     LIBCMT:winapinls.obj
 0002:00004a90       ??_C@_1M@MCMADGCB@?$AAd?$AAe?$AA?9?$AAD?$AAE?$AA?$AA@ 0000000180028a90     LIBCMT:winapinls.obj
 0002:00004aa0       ??_C@_1M@OOCKEMAM@?$AAe?$AAl?$AA?9?$AAG?$AAR?$AA?$AA@ 0000000180028aa0     LIBCMT:winapinls.obj
 0002:00004ab0       ??_C@_1M@DDNJFGID@?$AAf?$AAi?$AA?9?$AAF?$AAI?$AA?$AA@ 0000000180028ab0     LIBCMT:winapinls.obj
 0002:00004ac0       ??_C@_1M@GLIPPMAC@?$AAf?$AAr?$AA?9?$AAF?$AAR?$AA?$AA@ 0000000180028ac0     LIBCMT:winapinls.obj
 0002:00004ad0       ??_C@_1M@GFMCHPE@?$AAh?$AAe?$AA?9?$AAI?$AAL?$AA?$AA@ 0000000180028ad0     LIBCMT:winapinls.obj
 0002:00004ae0       ??_C@_1M@MHLPGNKM@?$AAh?$AAu?$AA?9?$AAH?$AAU?$AA?$AA@ 0000000180028ae0     LIBCMT:winapinls.obj
 0002:00004af0       ??_C@_1M@LPDDNNPN@?$AAi?$AAs?$AA?9?$AAI?$AAS?$AA?$AA@ 0000000180028af0     LIBCMT:winapinls.obj
 0002:00004b00       ??_C@_1M@MADIPODN@?$AAi?$AAt?$AA?9?$AAI?$AAT?$AA?$AA@ 0000000180028b00     LIBCMT:winapinls.obj
 0002:00004b10       ??_C@_1M@IHBJJGG@?$AAn?$AAl?$AA?9?$AAN?$AAL?$AA?$AA@ 0000000180028b10     LIBCMT:winapinls.obj
 0002:00004b20       ??_C@_1M@EANAGDL@?$AAn?$AAb?$AA?9?$AAN?$AAO?$AA?$AA@ 0000000180028b20     LIBCMT:winapinls.obj
 0002:00004b30       ??_C@_1M@NEIEMEGP@?$AAp?$AAl?$AA?9?$AAP?$AAL?$AA?$AA@ 0000000180028b30     LIBCMT:winapinls.obj
 0002:00004b40       ??_C@_1M@BOCFIGEP@?$AAp?$AAt?$AA?9?$AAB?$AAR?$AA?$AA@ 0000000180028b40     LIBCMT:winapinls.obj
 0002:00004b50       ??_C@_1M@IMPFOPBG@?$AAr?$AAo?$AA?9?$AAR?$AAO?$AA?$AA@ 0000000180028b50     LIBCMT:winapinls.obj
 0002:00004b60       ??_C@_1M@IDNNEJMM@?$AAr?$AAu?$AA?9?$AAR?$AAU?$AA?$AA@ 0000000180028b60     LIBCMT:winapinls.obj
 0002:00004b70       ??_C@_1M@LILEEOGM@?$AAh?$AAr?$AA?9?$AAH?$AAR?$AA?$AA@ 0000000180028b70     LIBCMT:winapinls.obj
 0002:00004b80       ??_C@_1M@FKIFEHPB@?$AAs?$AAk?$AA?9?$AAS?$AAK?$AA?$AA@ 0000000180028b80     LIBCMT:winapinls.obj
 0002:00004b90       ??_C@_1M@LJMAMNPJ@?$AAs?$AAq?$AA?9?$AAA?$AAL?$AA?$AA@ 0000000180028b90     LIBCMT:winapinls.obj
 0002:00004ba0       ??_C@_1M@GIAKDKJK@?$AAs?$AAv?$AA?9?$AAS?$AAE?$AA?$AA@ 0000000180028ba0     LIBCMT:winapinls.obj
 0002:00004bb0       ??_C@_1M@MKJKIKCL@?$AAt?$AAh?$AA?9?$AAT?$AAH?$AA?$AA@ 0000000180028bb0     LIBCMT:winapinls.obj
 0002:00004bc0       ??_C@_1M@MFLCCMPB@?$AAt?$AAr?$AA?9?$AAT?$AAR?$AA?$AA@ 0000000180028bc0     LIBCMT:winapinls.obj
 0002:00004bd0       ??_C@_1M@OIJHDKJN@?$AAu?$AAr?$AA?9?$AAP?$AAK?$AA?$AA@ 0000000180028bd0     LIBCMT:winapinls.obj
 0002:00004be0       ??_C@_1M@LHIPCIEK@?$AAi?$AAd?$AA?9?$AAI?$AAD?$AA?$AA@ 0000000180028be0     LIBCMT:winapinls.obj
 0002:00004bf0       ??_C@_1M@MFMOBGI@?$AAu?$AAk?$AA?9?$AAU?$AAA?$AA?$AA@ 0000000180028bf0     LIBCMT:winapinls.obj
 0002:00004c00       ??_C@_1M@OBGLJIPL@?$AAb?$AAe?$AA?9?$AAB?$AAY?$AA?$AA@ 0000000180028c00     LIBCMT:winapinls.obj
 0002:00004c10       ??_C@_1M@BCFAJEAD@?$AAs?$AAl?$AA?9?$AAS?$AAI?$AA?$AA@ 0000000180028c10     LIBCMT:winapinls.obj
 0002:00004c20       ??_C@_1M@FKFFEDDN@?$AAe?$AAt?$AA?9?$AAE?$AAE?$AA?$AA@ 0000000180028c20     LIBCMT:winapinls.obj
 0002:00004c30       ??_C@_1M@KGKKAACI@?$AAl?$AAv?$AA?9?$AAL?$AAV?$AA?$AA@ 0000000180028c30     LIBCMT:winapinls.obj
 0002:00004c40       ??_C@_1M@IFGBIJO@?$AAl?$AAt?$AA?9?$AAL?$AAT?$AA?$AA@ 0000000180028c40     LIBCMT:winapinls.obj
 0002:00004c50       ??_C@_1M@FGEAHEDM@?$AAf?$AAa?$AA?9?$AAI?$AAR?$AA?$AA@ 0000000180028c50     LIBCMT:winapinls.obj
 0002:00004c60       ??_C@_1M@KBMAIBFN@?$AAv?$AAi?$AA?9?$AAV?$AAN?$AA?$AA@ 0000000180028c60     LIBCMT:winapinls.obj
 0002:00004c70       ??_C@_1M@GPCBKDJK@?$AAh?$AAy?$AA?9?$AAA?$AAM?$AA?$AA@ 0000000180028c70     LIBCMT:winapinls.obj
 0002:00004c80       ??_C@_1BG@BECMDDJB@?$AAa?$AAz?$AA?9?$AAA?$AAZ?$AA?9?$AAL?$AAa?$AAt?$AAn?$AA?$AA@ 0000000180028c80     LIBCMT:winapinls.obj
 0002:00004c98       ??_C@_1M@MAOFCAEA@?$AAe?$AAu?$AA?9?$AAE?$AAS?$AA?$AA@ 0000000180028c98     LIBCMT:winapinls.obj
 0002:00004ca8       ??_C@_1M@IGHABKPI@?$AAm?$AAk?$AA?9?$AAM?$AAK?$AA?$AA@ 0000000180028ca8     LIBCMT:winapinls.obj
 0002:00004cb8       ??_C@_1M@IAIGNEJG@?$AAt?$AAn?$AA?9?$AAZ?$AAA?$AA?$AA@ 0000000180028cb8     LIBCMT:winapinls.obj
 0002:00004cc8       ??_C@_1M@IIJCOJFA@?$AAx?$AAh?$AA?9?$AAZ?$AAA?$AA?$AA@ 0000000180028cc8     LIBCMT:winapinls.obj
 0002:00004cd8       ??_C@_1M@LGPJHNJH@?$AAz?$AAu?$AA?9?$AAZ?$AAA?$AA?$AA@ 0000000180028cd8     LIBCMT:winapinls.obj
 0002:00004ce8       ??_C@_1M@HOKAOIO@?$AAa?$AAf?$AA?9?$AAZ?$AAA?$AA?$AA@ 0000000180028ce8     LIBCMT:winapinls.obj
 0002:00004cf8       ??_C@_1M@DPCLHLIE@?$AAk?$AAa?$AA?9?$AAG?$AAE?$AA?$AA@ 0000000180028cf8     LIBCMT:winapinls.obj
 0002:00004d08       ??_C@_1M@BLKMHJBI@?$AAf?$AAo?$AA?9?$AAF?$AAO?$AA?$AA@ 0000000180028d08     LIBCMT:winapinls.obj
 0002:00004d18       ??_C@_1M@LGGJAPPB@?$AAh?$AAi?$AA?9?$AAI?$AAN?$AA?$AA@ 0000000180028d18     LIBCMT:winapinls.obj
 0002:00004d28       ??_C@_1M@FIKPIHFE@?$AAm?$AAt?$AA?9?$AAM?$AAT?$AA?$AA@ 0000000180028d28     LIBCMT:winapinls.obj
 0002:00004d38       ??_C@_1M@HEGGPBFA@?$AAs?$AAe?$AA?9?$AAN?$AAO?$AA?$AA@ 0000000180028d38     LIBCMT:winapinls.obj
 0002:00004d48       ??_C@_1M@EIBJEEPA@?$AAm?$AAs?$AA?9?$AAM?$AAY?$AA?$AA@ 0000000180028d48     LIBCMT:winapinls.obj
 0002:00004d58       ??_C@_1M@FHLBGMPP@?$AAk?$AAk?$AA?9?$AAK?$AAZ?$AA?$AA@ 0000000180028d58     LIBCMT:winapinls.obj
 0002:00004d68       ??_C@_1M@NGJJLCGI@?$AAk?$AAy?$AA?9?$AAK?$AAG?$AA?$AA@ 0000000180028d68     LIBCMT:winapinls.obj
 0002:00004d78       ??_C@_1M@GIENNBFC@?$AAs?$AAw?$AA?9?$AAK?$AAE?$AA?$AA@ 0000000180028d78     LIBCMT:winapinls.obj
 0002:00004d88       ??_C@_1BG@NDGMJIMJ@?$AAu?$AAz?$AA?9?$AAU?$AAZ?$AA?9?$AAL?$AAa?$AAt?$AAn?$AA?$AA@ 0000000180028d88     LIBCMT:winapinls.obj
 0002:00004da0       ??_C@_1M@IDCCIHBC@?$AAt?$AAt?$AA?9?$AAR?$AAU?$AA?$AA@ 0000000180028da0     LIBCMT:winapinls.obj
 0002:00004db0       ??_C@_1M@LOICPMOJ@?$AAb?$AAn?$AA?9?$AAI?$AAN?$AA?$AA@ 0000000180028db0     LIBCMT:winapinls.obj
 0002:00004dc0       ??_C@_1M@KPKKNEAH@?$AAp?$AAa?$AA?9?$AAI?$AAN?$AA?$AA@ 0000000180028dc0     LIBCMT:winapinls.obj
 0002:00004dd0       ??_C@_1M@PJGPPBOG@?$AAg?$AAu?$AA?9?$AAI?$AAN?$AA?$AA@ 0000000180028dd0     LIBCMT:winapinls.obj
 0002:00004de0       ??_C@_1M@KMKMOPHI@?$AAt?$AAa?$AA?9?$AAI?$AAN?$AA?$AA@ 0000000180028de0     LIBCMT:winapinls.obj
 0002:00004df0       ??_C@_1M@KFEHEPAC@?$AAt?$AAe?$AA?9?$AAI?$AAN?$AA?$AA@ 0000000180028df0     LIBCMT:winapinls.obj
 0002:00004e00       ??_C@_1M@CDCLMGHI@?$AAk?$AAn?$AA?9?$AAI?$AAN?$AA?$AA@ 0000000180028e00     LIBCMT:winapinls.obj
 0002:00004e10       ??_C@_1M@MIODLDKF@?$AAm?$AAl?$AA?9?$AAI?$AAN?$AA?$AA@ 0000000180028e10     LIBCMT:winapinls.obj
 0002:00004e20       ??_C@_1M@PBIEACPO@?$AAm?$AAr?$AA?9?$AAI?$AAN?$AA?$AA@ 0000000180028e20     LIBCMT:winapinls.obj
 0002:00004e30       ??_C@_1M@NIDEAGPH@?$AAs?$AAa?$AA?9?$AAI?$AAN?$AA?$AA@ 0000000180028e30     LIBCMT:winapinls.obj
 0002:00004e40       ??_C@_1M@FHIHCBIO@?$AAm?$AAn?$AA?9?$AAM?$AAN?$AA?$AA@ 0000000180028e40     LIBCMT:winapinls.obj
 0002:00004e50       ??_C@_1M@JAIJPENP@?$AAc?$AAy?$AA?9?$AAG?$AAB?$AA?$AA@ 0000000180028e50     LIBCMT:winapinls.obj
 0002:00004e60       ??_C@_1M@PHGFBEPN@?$AAg?$AAl?$AA?9?$AAE?$AAS?$AA?$AA@ 0000000180028e60     LIBCMT:winapinls.obj
 0002:00004e70       ??_C@_1O@KPIPDNCP@?$AAk?$AAo?$AAk?$AA?9?$AAI?$AAN?$AA?$AA@ 0000000180028e70     LIBCMT:winapinls.obj
 0002:00004e80       ??_C@_1O@KNHJLDJA@?$AAs?$AAy?$AAr?$AA?9?$AAS?$AAY?$AA?$AA@ 0000000180028e80     LIBCMT:winapinls.obj
 0002:00004e90       ??_C@_1O@MKEKBLAH@?$AAd?$AAi?$AAv?$AA?9?$AAM?$AAV?$AA?$AA@ 0000000180028e90     LIBCMT:winapinls.obj
 0002:00004ea0       ??_C@_1O@OHDCKDDF@?$AAq?$AAu?$AAz?$AA?9?$AAB?$AAO?$AA?$AA@ 0000000180028ea0     LIBCMT:winapinls.obj
 0002:00004eb0       ??_C@_1M@LEPJNLFD@?$AAn?$AAs?$AA?9?$AAZ?$AAA?$AA?$AA@ 0000000180028eb0     LIBCMT:winapinls.obj
 0002:00004ec0       ??_C@_1M@OMLEIIJB@?$AAm?$AAi?$AA?9?$AAN?$AAZ?$AA?$AA@ 0000000180028ec0     LIBCMT:winapinls.obj
 0002:00004ed0       ??_C@_1M@PMPEAILG@?$AAa?$AAr?$AA?9?$AAI?$AAQ?$AA?$AA@ 0000000180028ed0     LIBCMT:winapinls.obj
 0002:00004ee0       ??_C@_1M@CNKPNOEE@?$AAd?$AAe?$AA?9?$AAC?$AAH?$AA?$AA@ 0000000180028ee0     LIBCMT:winapinls.obj
 0002:00004ef0       ??_C@_1M@LKMGMLKO@?$AAe?$AAn?$AA?9?$AAG?$AAB?$AA?$AA@ 0000000180028ef0     LIBCMT:winapinls.obj
 0002:00004f00       ??_C@_1M@PGKJFFGL@?$AAe?$AAs?$AA?9?$AAM?$AAX?$AA?$AA@ 0000000180028f00     LIBCMT:winapinls.obj
 0002:00004f10       ??_C@_1M@DNNANBDC@?$AAf?$AAr?$AA?9?$AAB?$AAE?$AA?$AA@ 0000000180028f10     LIBCMT:winapinls.obj
 0002:00004f20       ??_C@_1M@HLGMDFHM@?$AAi?$AAt?$AA?9?$AAC?$AAH?$AA?$AA@ 0000000180028f20     LIBCMT:winapinls.obj
 0002:00004f30       ??_C@_1M@CLLBGJH@?$AAn?$AAl?$AA?9?$AAB?$AAE?$AA?$AA@ 0000000180028f30     LIBCMT:winapinls.obj
 0002:00004f40       ??_C@_1M@BODBOGLF@?$AAn?$AAn?$AA?9?$AAN?$AAO?$AA?$AA@ 0000000180028f40     LIBCMT:winapinls.obj
 0002:00004f50       ??_C@_1M@HFFAHKAD@?$AAp?$AAt?$AA?9?$AAP?$AAT?$AA?$AA@ 0000000180028f50     LIBCMT:winapinls.obj
 0002:00004f60       ??_C@_1BG@LNOAKHIE@?$AAs?$AAr?$AA?9?$AAS?$AAP?$AA?9?$AAL?$AAa?$AAt?$AAn?$AA?$AA@ 0000000180028f60     LIBCMT:winapinls.obj
 0002:00004f78       ??_C@_1M@HBMHBGAK@?$AAs?$AAv?$AA?9?$AAF?$AAI?$AA?$AA@ 0000000180028f78     LIBCMT:winapinls.obj
 0002:00004f88       ??_C@_1BG@DGCJGJBE@?$AAa?$AAz?$AA?9?$AAA?$AAZ?$AA?9?$AAC?$AAy?$AAr?$AAl?$AA?$AA@ 0000000180028f88     LIBCMT:winapinls.obj
 0002:00004fa0       ??_C@_1M@KEJDAAHB@?$AAs?$AAe?$AA?9?$AAS?$AAE?$AA?$AA@ 0000000180028fa0     LIBCMT:winapinls.obj
 0002:00004fb0       ??_C@_1M@HEIBJJAD@?$AAm?$AAs?$AA?9?$AAB?$AAN?$AA?$AA@ 0000000180028fb0     LIBCMT:winapinls.obj
 0002:00004fc0       ??_C@_1BG@PBGJMCEM@?$AAu?$AAz?$AA?9?$AAU?$AAZ?$AA?9?$AAC?$AAy?$AAr?$AAl?$AA?$AA@ 0000000180028fc0     LIBCMT:winapinls.obj
 0002:00004fd8       ??_C@_1O@LAOBCMDF@?$AAq?$AAu?$AAz?$AA?9?$AAE?$AAC?$AA?$AA@ 0000000180028fd8     LIBCMT:winapinls.obj
 0002:00004fe8       ??_C@_1M@POEEMAIO@?$AAa?$AAr?$AA?9?$AAE?$AAG?$AA?$AA@ 0000000180028fe8     LIBCMT:winapinls.obj
 0002:00004ff8       ??_C@_1M@EFAKDEDL@?$AAz?$AAh?$AA?9?$AAH?$AAK?$AA?$AA@ 0000000180028ff8     LIBCMT:winapinls.obj
 0002:00005008       ??_C@_1M@HKKIJHGI@?$AAd?$AAe?$AA?9?$AAA?$AAT?$AA?$AA@ 0000000180029008     LIBCMT:winapinls.obj
 0002:00005018       ??_C@_1M@KBFBEHJF@?$AAe?$AAn?$AA?9?$AAA?$AAU?$AA?$AA@ 0000000180029018     LIBCMT:winapinls.obj
 0002:00005028       ??_C@_1M@MNPLFAAH@?$AAe?$AAs?$AA?9?$AAE?$AAS?$AA?$AA@ 0000000180029028     LIBCMT:winapinls.obj
 0002:00005038       ??_C@_1M@HJOOJFMA@?$AAf?$AAr?$AA?9?$AAC?$AAA?$AA?$AA@ 0000000180029038     LIBCMT:winapinls.obj
 0002:00005048       ??_C@_1BG@JPOFPNAB@?$AAs?$AAr?$AA?9?$AAS?$AAP?$AA?9?$AAC?$AAy?$AAr?$AAl?$AA?$AA@ 0000000180029048     LIBCMT:winapinls.obj
 0002:00005060       ??_C@_1M@LNFOCMOB@?$AAs?$AAe?$AA?9?$AAF?$AAI?$AA?$AA@ 0000000180029060     LIBCMT:winapinls.obj
 0002:00005070       ??_C@_1O@MGJBOAMB@?$AAq?$AAu?$AAz?$AA?9?$AAP?$AAE?$AA?$AA@ 0000000180029070     LIBCMT:winapinls.obj
 0002:00005080       ??_C@_1M@GJINLBOK@?$AAa?$AAr?$AA?9?$AAL?$AAY?$AA?$AA@ 0000000180029080     LIBCMT:winapinls.obj
 0002:00005090       ??_C@_1M@GGMNHJNL@?$AAz?$AAh?$AA?9?$AAS?$AAG?$AA?$AA@ 0000000180029090     LIBCMT:winapinls.obj
 0002:000050a0       ??_C@_1M@HOIKODND@?$AAd?$AAe?$AA?9?$AAL?$AAU?$AA?$AA@ 00000001800290a0     LIBCMT:winapinls.obj
 0002:000050b0       ??_C@_1M@DDOCCGFG@?$AAe?$AAn?$AA?9?$AAC?$AAA?$AA?$AA@ 00000001800290b0     LIBCMT:winapinls.obj
 0002:000050c0       ??_C@_1M@BNOEMJLF@?$AAe?$AAs?$AA?9?$AAG?$AAT?$AA?$AA@ 00000001800290c0     LIBCMT:winapinls.obj
 0002:000050d0       ??_C@_1M@EOGNKEK@?$AAf?$AAr?$AA?9?$AAC?$AAH?$AA?$AA@ 00000001800290d0     LIBCMT:winapinls.obj
 0002:000050e0       ??_C@_1M@FLIDJFHL@?$AAh?$AAr?$AA?9?$AAB?$AAA?$AA?$AA@ 00000001800290e0     LIBCMT:winapinls.obj
 0002:000050f0       ??_C@_1O@FMCELNAJ@?$AAs?$AAm?$AAj?$AA?9?$AAN?$AAO?$AA?$AA@ 00000001800290f0     LIBCMT:winapinls.obj
 0002:00005100       ??_C@_1M@JHGLJMGJ@?$AAa?$AAr?$AA?9?$AAD?$AAZ?$AA?$AA@ 0000000180029100     LIBCMT:winapinls.obj
 0002:00005110       ??_C@_1M@JKKFDCNP@?$AAz?$AAh?$AA?9?$AAM?$AAO?$AA?$AA@ 0000000180029110     LIBCMT:winapinls.obj
 0002:00005120       ??_C@_1M@GEEFALPE@?$AAd?$AAe?$AA?9?$AAL?$AAI?$AA?$AA@ 0000000180029120     LIBCMT:winapinls.obj
 0002:00005130       ??_C@_1M@IGEOFBG@?$AAe?$AAn?$AA?9?$AAN?$AAZ?$AA?$AA@ 0000000180029130     LIBCMT:winapinls.obj
 0002:00005140       ??_C@_1M@KDBONEHP@?$AAe?$AAs?$AA?9?$AAC?$AAR?$AA?$AA@ 0000000180029140     LIBCMT:winapinls.obj
 0002:00005150       ??_C@_1M@FHMDOHNN@?$AAf?$AAr?$AA?9?$AAL?$AAU?$AA?$AA@ 0000000180029150     LIBCMT:winapinls.obj
 0002:00005160       ??_C@_1BG@NFKKMAFG@?$AAb?$AAs?$AA?9?$AAB?$AAA?$AA?9?$AAL?$AAa?$AAt?$AAn?$AA?$AA@ 0000000180029160     LIBCMT:winapinls.obj
 0002:00005178       ??_C@_1O@IMNBEMCI@?$AAs?$AAm?$AAj?$AA?9?$AAS?$AAE?$AA?$AA@ 0000000180029178     LIBCMT:winapinls.obj
 0002:00005188       ??_C@_1M@DHHMBNDP@?$AAa?$AAr?$AA?9?$AAM?$AAA?$AA?$AA@ 0000000180029188     LIBCMT:winapinls.obj
 0002:00005198       ??_C@_1M@BNBLJCGH@?$AAe?$AAn?$AA?9?$AAI?$AAE?$AA?$AA@ 0000000180029198     LIBCMT:winapinls.obj
 0002:000051a8       ??_C@_1M@GEPAFMDL@?$AAe?$AAs?$AA?9?$AAP?$AAA?$AA?$AA@ 00000001800291a8     LIBCMT:winapinls.obj
 0002:000051b8       ??_C@_1M@OJONDMDL@?$AAf?$AAr?$AA?9?$AAM?$AAC?$AA?$AA@ 00000001800291b8     LIBCMT:winapinls.obj
 0002:000051c8       ??_C@_1BG@OBCNFJB@?$AAs?$AAr?$AA?9?$AAB?$AAA?$AA?9?$AAL?$AAa?$AAt?$AAn?$AA?$AA@ 00000001800291c8     LIBCMT:winapinls.obj
 0002:000051e0       ??_C@_1O@KEMEEGPO@?$AAs?$AAm?$AAa?$AA?9?$AAN?$AAO?$AA?$AA@ 00000001800291e0     LIBCMT:winapinls.obj
 0002:000051f0       ??_C@_1M@ELMGFODK@?$AAa?$AAr?$AA?9?$AAT?$AAN?$AA?$AA@ 00000001800291f0     LIBCMT:winapinls.obj
 0002:00005200       ??_C@_1M@BHDLHFAF@?$AAe?$AAn?$AA?9?$AAZ?$AAA?$AA?$AA@ 0000000180029200     LIBCMT:winapinls.obj
 0002:00005210       ??_C@_1M@BMGIGLIF@?$AAe?$AAs?$AA?9?$AAD?$AAO?$AA?$AA@ 0000000180029210     LIBCMT:winapinls.obj
 0002:00005220       ??_C@_1BG@CMBHIPBE@?$AAs?$AAr?$AA?9?$AAB?$AAA?$AA?9?$AAC?$AAy?$AAr?$AAl?$AA?$AA@ 0000000180029220     LIBCMT:winapinls.obj
 0002:00005238       ??_C@_1O@HEDBLHNP@?$AAs?$AAm?$AAa?$AA?9?$AAS?$AAE?$AA?$AA@ 0000000180029238     LIBCMT:winapinls.obj
 0002:00005248       ??_C@_1M@DAGCADIM@?$AAa?$AAr?$AA?9?$AAO?$AAM?$AA?$AA@ 0000000180029248     LIBCMT:winapinls.obj
 0002:00005258       ??_C@_1M@FODLMICG@?$AAe?$AAn?$AA?9?$AAJ?$AAM?$AA?$AA@ 0000000180029258     LIBCMT:winapinls.obj
 0002:00005268       ??_C@_1M@DNMLCIHB@?$AAe?$AAs?$AA?9?$AAV?$AAE?$AA?$AA@ 0000000180029268     LIBCMT:winapinls.obj
 0002:00005278       ??_C@_1O@EOKHMKJK@?$AAs?$AAm?$AAs?$AA?9?$AAF?$AAI?$AA?$AA@ 0000000180029278     LIBCMT:winapinls.obj
 0002:00005288       ??_C@_1M@CAFJMKOF@?$AAa?$AAr?$AA?9?$AAY?$AAE?$AA?$AA@ 0000000180029288     LIBCMT:winapinls.obj
 0002:00005298       ??_C@_1M@CBFHIJLI@?$AAe?$AAn?$AA?9?$AAC?$AAB?$AA?$AA@ 0000000180029298     LIBCMT:winapinls.obj
 0002:000052a8       ??_C@_1M@BGNFLDN@?$AAe?$AAs?$AA?9?$AAC?$AAO?$AA?$AA@ 00000001800292a8     LIBCMT:winapinls.obj
 0002:000052b8       ??_C@_1O@JMPHMAMC@?$AAs?$AAm?$AAn?$AA?9?$AAF?$AAI?$AA?$AA@ 00000001800292b8     LIBCMT:winapinls.obj
 0002:000052c8       ??_C@_1M@JLANABKE@?$AAa?$AAr?$AA?9?$AAS?$AAY?$AA?$AA@ 00000001800292c8     LIBCMT:winapinls.obj
 0002:000052d8       ??_C@_1M@HPKGCFGN@?$AAe?$AAn?$AA?9?$AAB?$AAZ?$AA?$AA@ 00000001800292d8     LIBCMT:winapinls.obj
 0002:000052e8       ??_C@_1M@OLJCMLGM@?$AAe?$AAs?$AA?9?$AAP?$AAE?$AA?$AA@ 00000001800292e8     LIBCMT:winapinls.obj
 0002:000052f8       ??_C@_1M@MKKGFKLE@?$AAa?$AAr?$AA?9?$AAJ?$AAO?$AA?$AA@ 00000001800292f8     LIBCMT:winapinls.obj
 0002:00005308       ??_C@_1M@EKPGLDNI@?$AAe?$AAn?$AA?9?$AAT?$AAT?$AA?$AA@ 0000000180029308     LIBCMT:winapinls.obj
 0002:00005318       ??_C@_1M@OONGHFHE@?$AAe?$AAs?$AA?9?$AAA?$AAR?$AA?$AA@ 0000000180029318     LIBCMT:winapinls.obj
 0002:00005328       ??_C@_1M@OOJFGBHE@?$AAa?$AAr?$AA?9?$AAL?$AAB?$AA?$AA@ 0000000180029328     LIBCMT:winapinls.obj
 0002:00005338       ??_C@_1M@GCEJHNEG@?$AAe?$AAn?$AA?9?$AAZ?$AAW?$AA?$AA@ 0000000180029338     LIBCMT:winapinls.obj
 0002:00005348       ??_C@_1M@JNOCAHJI@?$AAe?$AAs?$AA?9?$AAE?$AAC?$AA?$AA@ 0000000180029348     LIBCMT:winapinls.obj
 0002:00005358       ??_C@_1M@JEFHPGGB@?$AAa?$AAr?$AA?9?$AAK?$AAW?$AA?$AA@ 0000000180029358     LIBCMT:winapinls.obj
 0002:00005368       ??_C@_1M@MLKIBJOJ@?$AAe?$AAn?$AA?9?$AAP?$AAH?$AA?$AA@ 0000000180029368     LIBCMT:winapinls.obj
 0002:00005378       ??_C@_1M@BDNIPEND@?$AAe?$AAs?$AA?9?$AAC?$AAL?$AA?$AA@ 0000000180029378     LIBCMT:winapinls.obj
 0002:00005388       ??_C@_1M@MPNMEKBD@?$AAa?$AAr?$AA?9?$AAA?$AAE?$AA?$AA@ 0000000180029388     LIBCMT:winapinls.obj
 0002:00005398       ??_C@_1M@KBJALCPI@?$AAe?$AAs?$AA?9?$AAU?$AAY?$AA?$AA@ 0000000180029398     LIBCMT:winapinls.obj
 0002:000053a8       ??_C@_1M@LLCCOAGA@?$AAa?$AAr?$AA?9?$AAB?$AAH?$AA?$AA@ 00000001800293a8     LIBCMT:winapinls.obj
 0002:000053b8       ??_C@_1M@PBFNCDEL@?$AAe?$AAs?$AA?9?$AAP?$AAY?$AA?$AA@ 00000001800293b8     LIBCMT:winapinls.obj
 0002:000053c8       ??_C@_1M@EDGINPNP@?$AAa?$AAr?$AA?9?$AAQ?$AAA?$AA?$AA@ 00000001800293c8     LIBCMT:winapinls.obj
 0002:000053d8       ??_C@_1M@MKDBIIJI@?$AAe?$AAs?$AA?9?$AAB?$AAO?$AA?$AA@ 00000001800293d8     LIBCMT:winapinls.obj
 0002:000053e8       ??_C@_1M@CPKKEBLD@?$AAe?$AAs?$AA?9?$AAS?$AAV?$AA?$AA@ 00000001800293e8     LIBCMT:winapinls.obj
 0002:000053f8       ??_C@_1M@NDBGMMJL@?$AAe?$AAs?$AA?9?$AAH?$AAN?$AA?$AA@ 00000001800293f8     LIBCMT:winapinls.obj
 0002:00005408       ??_C@_1M@JIJIBHDP@?$AAe?$AAs?$AA?9?$AAN?$AAI?$AA?$AA@ 0000000180029408     LIBCMT:winapinls.obj
 0002:00005418       ??_C@_1M@CGFMKEEK@?$AAe?$AAs?$AA?9?$AAP?$AAR?$AA?$AA@ 0000000180029418     LIBCMT:winapinls.obj
 0002:00005428       ??_C@_1O@ICJHKIIK@?$AAz?$AAh?$AA?9?$AAC?$AAH?$AAT?$AA?$AA@ 0000000180029428     LIBCMT:winapinls.obj
 0002:00005438       ??_C@_15CLNEJCE@?$AAs?$AAr?$AA?$AA@ 0000000180029438     LIBCMT:winapinls.obj
 0002:00005440       ??_C@_1M@KAHEKEIG@?$AAa?$AAf?$AA?9?$AAz?$AAa?$AA?$AA@ 0000000180029440     LIBCMT:winapinls.obj
 0002:00005450       ??_C@_1M@GIECOABL@?$AAa?$AAr?$AA?9?$AAa?$AAe?$AA?$AA@ 0000000180029450     LIBCMT:winapinls.obj
 0002:00005460       ??_C@_1M@BMLMEKGI@?$AAa?$AAr?$AA?9?$AAb?$AAh?$AA?$AA@ 0000000180029460     LIBCMT:winapinls.obj
 0002:00005470       ??_C@_1M@DAPFDGGB@?$AAa?$AAr?$AA?9?$AAd?$AAz?$AA?$AA@ 0000000180029470     LIBCMT:winapinls.obj
 0002:00005480       ??_C@_1M@FJNKGKIG@?$AAa?$AAr?$AA?9?$AAe?$AAg?$AA?$AA@ 0000000180029480     LIBCMT:winapinls.obj
 0002:00005490       ??_C@_1M@FLGKKCLO@?$AAa?$AAr?$AA?9?$AAi?$AAq?$AA?$AA@ 0000000180029490     LIBCMT:winapinls.obj
 0002:000054a0       ??_C@_1M@GNDIPALM@?$AAa?$AAr?$AA?9?$AAj?$AAo?$AA?$AA@ 00000001800294a0     LIBCMT:winapinls.obj
 0002:000054b0       ??_C@_1M@DDMJFMGJ@?$AAa?$AAr?$AA?9?$AAk?$AAw?$AA?$AA@ 00000001800294b0     LIBCMT:winapinls.obj
 0002:000054c0       ??_C@_1M@EJALMLHM@?$AAa?$AAr?$AA?9?$AAl?$AAb?$AA?$AA@ 00000001800294c0     LIBCMT:winapinls.obj
 0002:000054d0       ??_C@_1M@MOBDBLOC@?$AAa?$AAr?$AA?9?$AAl?$AAy?$AA?$AA@ 00000001800294d0     LIBCMT:winapinls.obj
 0002:000054e0       ??_C@_1M@JAOCLHDH@?$AAa?$AAr?$AA?9?$AAm?$AAa?$AA?$AA@ 00000001800294e0     LIBCMT:winapinls.obj
 0002:000054f0       ??_C@_1M@JHPMKJIE@?$AAa?$AAr?$AA?9?$AAo?$AAm?$AA?$AA@ 00000001800294f0     LIBCMT:winapinls.obj
 0002:00005500       ??_C@_1M@OEPGHFNH@?$AAa?$AAr?$AA?9?$AAq?$AAa?$AA?$AA@ 0000000180029500     LIBCMT:winapinls.obj
 0002:00005510       ??_C@_1M@KJDONENM@?$AAa?$AAr?$AA?9?$AAs?$AAa?$AA?$AA@ 0000000180029510     LIBCMT:winapinls.obj
 0002:00005520       ??_C@_1M@DMJDKLKM@?$AAa?$AAr?$AA?9?$AAs?$AAy?$AA?$AA@ 0000000180029520     LIBCMT:winapinls.obj
 0002:00005530       ??_C@_1M@OMFIPEDC@?$AAa?$AAr?$AA?9?$AAt?$AAn?$AA?$AA@ 0000000180029530     LIBCMT:winapinls.obj
 0002:00005540       ??_C@_1M@IHMHGAON@?$AAa?$AAr?$AA?9?$AAy?$AAe?$AA?$AA@ 0000000180029540     LIBCMT:winapinls.obj
 0002:00005550       ??_C@_1BG@KDCPGJGB@?$AAa?$AAz?$AA?9?$AAa?$AAz?$AA?9?$AAc?$AAy?$AAr?$AAl?$AA?$AA@ 0000000180029550     LIBCMT:winapinls.obj
 0002:00005568       ??_C@_1BG@IBCKDDOE@?$AAa?$AAz?$AA?9?$AAa?$AAz?$AA?9?$AAl?$AAa?$AAt?$AAn?$AA?$AA@ 0000000180029568     LIBCMT:winapinls.obj
 0002:00005580       ??_C@_1M@EGPFDCPD@?$AAb?$AAe?$AA?9?$AAb?$AAy?$AA?$AA@ 0000000180029580     LIBCMT:winapinls.obj
 0002:00005590       ??_C@_1M@PCMGMCGC@?$AAb?$AAg?$AA?9?$AAb?$AAg?$AA?$AA@ 0000000180029590     LIBCMT:winapinls.obj
 0002:000055a0       ??_C@_1M@BJBMFGOB@?$AAb?$AAn?$AA?9?$AAi?$AAn?$AA?$AA@ 00000001800295a0     LIBCMT:winapinls.obj
 0002:000055b0       ??_C@_1BG@EAKMMACD@?$AAb?$AAs?$AA?9?$AAb?$AAa?$AA?9?$AAl?$AAa?$AAt?$AAn?$AA?$AA@ 00000001800295b0     LIBCMT:winapinls.obj
 0002:000055c8       ??_C@_1M@KGADAODK@?$AAc?$AAa?$AA?9?$AAe?$AAs?$AA?$AA@ 00000001800295c8     LIBCMT:winapinls.obj
 0002:000055d8       ??_C@_1M@COAJPDHI@?$AAc?$AAs?$AA?9?$AAc?$AAz?$AA?$AA@ 00000001800295d8     LIBCMT:winapinls.obj
 0002:000055e8       ??_C@_1M@DHBHFONH@?$AAc?$AAy?$AA?9?$AAg?$AAb?$AA?$AA@ 00000001800295e8     LIBCMT:winapinls.obj
 0002:000055f8       ??_C@_1M@IMGKELGA@?$AAd?$AAa?$AA?9?$AAd?$AAk?$AA?$AA@ 00000001800295f8     LIBCMT:winapinls.obj
 0002:00005608       ??_C@_1M@NNDGDNGA@?$AAd?$AAe?$AA?9?$AAa?$AAt?$AA?$AA@ 0000000180029608     LIBCMT:winapinls.obj
 0002:00005618       ??_C@_1M@IKDBHEEM@?$AAd?$AAe?$AA?9?$AAc?$AAh?$AA?$AA@ 0000000180029618     LIBCMT:winapinls.obj
 0002:00005628       ??_C@_1M@GFFOJMCJ@?$AAd?$AAe?$AA?9?$AAd?$AAe?$AA?$AA@ 0000000180029628     LIBCMT:winapinls.obj
 0002:00005638       ??_C@_1M@MDNLKBPM@?$AAd?$AAe?$AA?9?$AAl?$AAi?$AA?$AA@ 0000000180029638     LIBCMT:winapinls.obj
 0002:00005648       ??_C@_1M@NJBEEJNL@?$AAd?$AAe?$AA?9?$AAl?$AAu?$AA?$AA@ 0000000180029648     LIBCMT:winapinls.obj
 0002:00005658       ??_C@_1O@GNNELBAP@?$AAd?$AAi?$AAv?$AA?9?$AAm?$AAv?$AA?$AA@ 0000000180029658     LIBCMT:winapinls.obj
 0002:00005668       ??_C@_1M@EJLEOGAE@?$AAe?$AAl?$AA?9?$AAg?$AAr?$AA?$AA@ 0000000180029668     LIBCMT:winapinls.obj
 0002:00005678       ??_C@_1M@GMPONJN@?$AAe?$AAn?$AA?9?$AAa?$AAu?$AA?$AA@ 0000000180029678     LIBCMT:winapinls.obj
 0002:00005688       ??_C@_1M@NIDIIPGF@?$AAe?$AAn?$AA?9?$AAb?$AAz?$AA?$AA@ 0000000180029688     LIBCMT:winapinls.obj
 0002:00005698       ??_C@_1M@JEHMIMFO@?$AAe?$AAn?$AA?9?$AAc?$AAa?$AA?$AA@ 0000000180029698     LIBCMT:winapinls.obj
 0002:000056a8       ??_C@_1M@IGMJCDLA@?$AAe?$AAn?$AA?9?$AAc?$AAb?$AA?$AA@ 00000001800296a8     LIBCMT:winapinls.obj
 0002:000056b8       ??_C@_1M@BNFIGBKG@?$AAe?$AAn?$AA?9?$AAg?$AAb?$AA?$AA@ 00000001800296b8     LIBCMT:winapinls.obj
 0002:000056c8       ??_C@_1M@LKIFDIGP@?$AAe?$AAn?$AA?9?$AAi?$AAe?$AA?$AA@ 00000001800296c8     LIBCMT:winapinls.obj
 0002:000056d8       ??_C@_1M@PJKFGCCO@?$AAe?$AAn?$AA?9?$AAj?$AAm?$AA?$AA@ 00000001800296d8     LIBCMT:winapinls.obj
 0002:000056e8       ??_C@_1M@KPPKEPBO@?$AAe?$AAn?$AA?9?$AAn?$AAz?$AA?$AA@ 00000001800296e8     LIBCMT:winapinls.obj
 0002:000056f8       ??_C@_1M@GMDGLDOB@?$AAe?$AAn?$AA?9?$AAp?$AAh?$AA?$AA@ 00000001800296f8     LIBCMT:winapinls.obj
 0002:00005708       ??_C@_1M@ONGIBJNA@?$AAe?$AAn?$AA?9?$AAt?$AAt?$AA?$AA@ 0000000180029708     LIBCMT:winapinls.obj
 0002:00005718       ??_C@_1M@LLODPCMM@?$AAe?$AAn?$AA?9?$AAu?$AAs?$AA?$AA@ 0000000180029718     LIBCMT:winapinls.obj
 0002:00005728       ??_C@_1M@LAKFNPAN@?$AAe?$AAn?$AA?9?$AAz?$AAa?$AA?$AA@ 0000000180029728     LIBCMT:winapinls.obj
 0002:00005738       ??_C@_1M@MFNHNHEO@?$AAe?$AAn?$AA?9?$AAz?$AAw?$AA?$AA@ 0000000180029738     LIBCMT:winapinls.obj
 0002:00005748       ??_C@_1M@EJEINPHM@?$AAe?$AAs?$AA?9?$AAa?$AAr?$AA?$AA@ 0000000180029748     LIBCMT:winapinls.obj
 0002:00005758       ??_C@_1M@GNKPCCJA@?$AAe?$AAs?$AA?9?$AAb?$AAo?$AA?$AA@ 0000000180029758     LIBCMT:winapinls.obj
 0002:00005768       ??_C@_1M@LEEGFONL@?$AAe?$AAs?$AA?9?$AAc?$AAl?$AA?$AA@ 0000000180029768     LIBCMT:winapinls.obj
 0002:00005778       ??_C@_1M@KGPDPBDF@?$AAe?$AAs?$AA?9?$AAc?$AAo?$AA?$AA@ 0000000180029778     LIBCMT:winapinls.obj
 0002:00005788       ??_C@_1M@EIAHOHH@?$AAe?$AAs?$AA?9?$AAc?$AAr?$AA?$AA@ 0000000180029788     LIBCMT:winapinls.obj
 0002:00005798       ??_C@_1M@LLPGMBIN@?$AAe?$AAs?$AA?9?$AAd?$AAo?$AA?$AA@ 0000000180029798     LIBCMT:winapinls.obj
 0002:000057a8       ??_C@_1M@DKHMKNJA@?$AAe?$AAs?$AA?9?$AAe?$AAc?$AA?$AA@ 00000001800297a8     LIBCMT:winapinls.obj
 0002:000057b8       ??_C@_1M@GKGFPKAP@?$AAe?$AAs?$AA?9?$AAe?$AAs?$AA?$AA@ 00000001800297b8     LIBCMT:winapinls.obj
 0002:000057c8       ??_C@_1M@LKHKGDLN@?$AAe?$AAs?$AA?9?$AAg?$AAt?$AA?$AA@ 00000001800297c8     LIBCMT:winapinls.obj
 0002:000057d8       ??_C@_1M@HEIIGGJD@?$AAe?$AAs?$AA?9?$AAh?$AAn?$AA?$AA@ 00000001800297d8     LIBCMT:winapinls.obj
 0002:000057e8       ??_C@_1M@FBDHPPGD@?$AAe?$AAs?$AA?9?$AAm?$AAx?$AA?$AA@ 00000001800297e8     LIBCMT:winapinls.obj
 0002:000057f8       ??_C@_1M@DPAGLNDH@?$AAe?$AAs?$AA?9?$AAn?$AAi?$AA?$AA@ 00000001800297f8     LIBCMT:winapinls.obj
 0002:00005808       ??_C@_1M@MDGOPGDD@?$AAe?$AAs?$AA?9?$AAp?$AAa?$AA?$AA@ 0000000180029808     LIBCMT:winapinls.obj
 0002:00005818       ??_C@_1M@EMAMGBGE@?$AAe?$AAs?$AA?9?$AAp?$AAe?$AA?$AA@ 0000000180029818     LIBCMT:winapinls.obj
 0002:00005828       ??_C@_1M@IBMCAOEC@?$AAe?$AAs?$AA?9?$AAp?$AAr?$AA?$AA@ 0000000180029828     LIBCMT:winapinls.obj
 0002:00005838       ??_C@_1M@FGMDIJED@?$AAe?$AAs?$AA?9?$AAp?$AAy?$AA?$AA@ 0000000180029838     LIBCMT:winapinls.obj
 0002:00005848       ??_C@_1M@IIDEOLLL@?$AAe?$AAs?$AA?9?$AAs?$AAv?$AA?$AA@ 0000000180029848     LIBCMT:winapinls.obj
 0002:00005858       ??_C@_1M@GAOBIPA@?$AAe?$AAs?$AA?9?$AAu?$AAy?$AA?$AA@ 0000000180029858     LIBCMT:winapinls.obj
 0002:00005868       ??_C@_1M@JKFFICHJ@?$AAe?$AAs?$AA?9?$AAv?$AAe?$AA?$AA@ 0000000180029868     LIBCMT:winapinls.obj
 0002:00005878       ??_C@_1M@PNMLOJDF@?$AAe?$AAt?$AA?9?$AAe?$AAe?$AA?$AA@ 0000000180029878     LIBCMT:winapinls.obj
 0002:00005888       ??_C@_1M@GHHLIKEI@?$AAe?$AAu?$AA?9?$AAe?$AAs?$AA?$AA@ 0000000180029888     LIBCMT:winapinls.obj
 0002:00005898       ??_C@_1M@PBNONODE@?$AAf?$AAa?$AA?9?$AAi?$AAr?$AA?$AA@ 0000000180029898     LIBCMT:winapinls.obj
 0002:000058a8       ??_C@_1M@JEEHPMIL@?$AAf?$AAi?$AA?9?$AAf?$AAi?$AA?$AA@ 00000001800298a8     LIBCMT:winapinls.obj
 0002:000058b8       ??_C@_1M@LMDCNDBA@?$AAf?$AAo?$AA?9?$AAf?$AAo?$AA?$AA@ 00000001800298b8     LIBCMT:winapinls.obj
 0002:000058c8       ??_C@_1M@JKEOHLDK@?$AAf?$AAr?$AA?9?$AAb?$AAe?$AA?$AA@ 00000001800298c8     LIBCMT:winapinls.obj
 0002:000058d8       ??_C@_1M@NOHADPMI@?$AAf?$AAr?$AA?9?$AAc?$AAa?$AA?$AA@ 00000001800298d8     LIBCMT:winapinls.obj
 0002:000058e8       ??_C@_1M@KDHIHAEC@?$AAf?$AAr?$AA?9?$AAc?$AAh?$AA?$AA@ 00000001800298e8     LIBCMT:winapinls.obj
 0002:000058f8       ??_C@_1M@MMBBFGAK@?$AAf?$AAr?$AA?9?$AAf?$AAr?$AA?$AA@ 00000001800298f8     LIBCMT:winapinls.obj
 0002:00005908       ??_C@_1M@PAFNENNF@?$AAf?$AAr?$AA?9?$AAl?$AAu?$AA?$AA@ 0000000180029908     LIBCMT:winapinls.obj
 0002:00005918       ??_C@_1M@EOHDJGDD@?$AAf?$AAr?$AA?9?$AAm?$AAc?$AA?$AA@ 0000000180029918     LIBCMT:winapinls.obj
 0002:00005928       ??_C@_1M@FAPLLOPF@?$AAg?$AAl?$AA?9?$AAe?$AAs?$AA?$AA@ 0000000180029928     LIBCMT:winapinls.obj
 0002:00005938       ??_C@_1M@FOPBFLOO@?$AAg?$AAu?$AA?9?$AAi?$AAn?$AA?$AA@ 0000000180029938     LIBCMT:winapinls.obj
 0002:00005948       ??_C@_1M@KBMCINPM@?$AAh?$AAe?$AA?9?$AAi?$AAl?$AA?$AA@ 0000000180029948     LIBCMT:winapinls.obj
 0002:00005958       ??_C@_1M@BBPHKFPJ@?$AAh?$AAi?$AA?9?$AAi?$AAn?$AA?$AA@ 0000000180029958     LIBCMT:winapinls.obj
 0002:00005968       ??_C@_1M@PMBNDPHD@?$AAh?$AAr?$AA?9?$AAb?$AAa?$AA?$AA@ 0000000180029968     LIBCMT:winapinls.obj
 0002:00005978       ??_C@_1M@BPCKOEGE@?$AAh?$AAr?$AA?9?$AAh?$AAr?$AA?$AA@ 0000000180029978     LIBCMT:winapinls.obj
 0002:00005988       ??_C@_1M@GACBMHKE@?$AAh?$AAu?$AA?9?$AAh?$AAu?$AA?$AA@ 0000000180029988     LIBCMT:winapinls.obj
 0002:00005998       ??_C@_1M@MILPAJJC@?$AAh?$AAy?$AA?9?$AAa?$AAm?$AA?$AA@ 0000000180029998     LIBCMT:winapinls.obj
 0002:000059a8       ??_C@_1M@BABBICEC@?$AAi?$AAd?$AA?9?$AAi?$AAd?$AA?$AA@ 00000001800299a8     LIBCMT:winapinls.obj
 0002:000059b8       ??_C@_1M@BIKNHHPF@?$AAi?$AAs?$AA?9?$AAi?$AAs?$AA?$AA@ 00000001800299b8     LIBCMT:winapinls.obj
 0002:000059c8       ??_C@_1M@NMPCJPHE@?$AAi?$AAt?$AA?9?$AAc?$AAh?$AA?$AA@ 00000001800299c8     LIBCMT:winapinls.obj
 0002:000059d8       ??_C@_1M@GHKGFEDF@?$AAi?$AAt?$AA?9?$AAi?$AAt?$AA?$AA@ 00000001800299d8     LIBCMT:winapinls.obj
 0002:000059e8       ??_C@_1M@NIEJCJJA@?$AAj?$AAa?$AA?9?$AAj?$AAp?$AA?$AA@ 00000001800299e8     LIBCMT:winapinls.obj
 0002:000059f8       ??_C@_1M@JILFNBIM@?$AAk?$AAa?$AA?9?$AAg?$AAe?$AA?$AA@ 00000001800299f8     LIBCMT:winapinls.obj
 0002:00005a08       ??_C@_1M@PACPMGPH@?$AAk?$AAk?$AA?9?$AAk?$AAz?$AA?$AA@ 0000000180029a08     LIBCMT:winapinls.obj
 0002:00005a18       ??_C@_1M@IELFGMHA@?$AAk?$AAn?$AA?9?$AAi?$AAn?$AA?$AA@ 0000000180029a18     LIBCMT:winapinls.obj
 0002:00005a28       ??_C@_1O@IBBJHCH@?$AAk?$AAo?$AAk?$AA?9?$AAi?$AAn?$AA?$AA@ 0000000180029a28     LIBCMT:winapinls.obj
 0002:00005a38       ??_C@_1M@DMHAEOGC@?$AAk?$AAo?$AA?9?$AAk?$AAr?$AA?$AA@ 0000000180029a38     LIBCMT:winapinls.obj
 0002:00005a48       ??_C@_1M@HBAHBIGA@?$AAk?$AAy?$AA?9?$AAk?$AAg?$AA?$AA@ 0000000180029a48     LIBCMT:winapinls.obj
 0002:00005a58       ??_C@_1M@KPMILCJG@?$AAl?$AAt?$AA?9?$AAl?$AAt?$AA?$AA@ 0000000180029a58     LIBCMT:winapinls.obj
 0002:00005a68       ??_C@_1M@BDEKKCA@?$AAl?$AAv?$AA?9?$AAl?$AAv?$AA?$AA@ 0000000180029a68     LIBCMT:winapinls.obj
 0002:00005a78       ??_C@_1M@ELCKCCJJ@?$AAm?$AAi?$AA?9?$AAn?$AAz?$AA?$AA@ 0000000180029a78     LIBCMT:winapinls.obj
 0002:00005a88       ??_C@_1M@CBOOLAPA@?$AAm?$AAk?$AA?9?$AAm?$AAk?$AA?$AA@ 0000000180029a88     LIBCMT:winapinls.obj
 0002:00005a98       ??_C@_1M@GPHNBJKN@?$AAm?$AAl?$AA?9?$AAi?$AAn?$AA?$AA@ 0000000180029a98     LIBCMT:winapinls.obj
 0002:00005aa8       ??_C@_1M@PABJILIG@?$AAm?$AAn?$AA?9?$AAm?$AAn?$AA?$AA@ 0000000180029aa8     LIBCMT:winapinls.obj
 0002:00005ab8       ??_C@_1M@FGBKKIPG@?$AAm?$AAr?$AA?9?$AAi?$AAn?$AA?$AA@ 0000000180029ab8     LIBCMT:winapinls.obj
 0002:00005ac8       ??_C@_1M@NDBPDDAL@?$AAm?$AAs?$AA?9?$AAb?$AAn?$AA?$AA@ 0000000180029ac8     LIBCMT:winapinls.obj
 0002:00005ad8       ??_C@_1M@OPIHOOPI@?$AAm?$AAs?$AA?9?$AAm?$AAy?$AA?$AA@ 0000000180029ad8     LIBCMT:winapinls.obj
 0002:00005ae8       ??_C@_1M@PPDBCNFM@?$AAm?$AAt?$AA?9?$AAm?$AAt?$AA?$AA@ 0000000180029ae8     LIBCMT:winapinls.obj
 0002:00005af8       ??_C@_1M@KDJDKMDD@?$AAn?$AAb?$AA?9?$AAn?$AAo?$AA?$AA@ 0000000180029af8     LIBCMT:winapinls.obj
 0002:00005b08       ??_C@_1M@KFCFLMJP@?$AAn?$AAl?$AA?9?$AAb?$AAe?$AA?$AA@ 0000000180029b08     LIBCMT:winapinls.obj
 0002:00005b18       ??_C@_1M@KPOPDDGO@?$AAn?$AAl?$AA?9?$AAn?$AAl?$AA?$AA@ 0000000180029b18     LIBCMT:winapinls.obj
 0002:00005b28       ??_C@_1M@LJKPEMLN@?$AAn?$AAn?$AA?9?$AAn?$AAo?$AA?$AA@ 0000000180029b28     LIBCMT:winapinls.obj
 0002:00005b38       ??_C@_1M@BDGHHBFL@?$AAn?$AAs?$AA?9?$AAz?$AAa?$AA?$AA@ 0000000180029b38     LIBCMT:winapinls.obj
 0002:00005b48       ??_C@_1M@IDEHOAP@?$AAp?$AAa?$AA?9?$AAi?$AAn?$AA?$AA@ 0000000180029b48     LIBCMT:winapinls.obj
 0002:00005b58       ??_C@_1M@HDBKGOGH@?$AAp?$AAl?$AA?9?$AAp?$AAl?$AA?$AA@ 0000000180029b58     LIBCMT:winapinls.obj
 0002:00005b68       ??_C@_1M@LJLLCMEH@?$AAp?$AAt?$AA?9?$AAb?$AAr?$AA?$AA@ 0000000180029b68     LIBCMT:winapinls.obj
 0002:00005b78       ??_C@_1M@NCMONAAL@?$AAp?$AAt?$AA?9?$AAp?$AAt?$AA?$AA@ 0000000180029b78     LIBCMT:winapinls.obj
 0002:00005b88       ??_C@_1O@EAKMAJDN@?$AAq?$AAu?$AAz?$AA?9?$AAb?$AAo?$AA?$AA@ 0000000180029b88     LIBCMT:winapinls.obj
 0002:00005b98       ??_C@_1O@BHHPIGDN@?$AAq?$AAu?$AAz?$AA?9?$AAe?$AAc?$AA?$AA@ 0000000180029b98     LIBCMT:winapinls.obj
 0002:00005ba8       ??_C@_1O@GBAPEKMJ@?$AAq?$AAu?$AAz?$AA?9?$AAp?$AAe?$AA?$AA@ 0000000180029ba8     LIBCMT:winapinls.obj
 0002:00005bb8       ??_C@_1M@CLGLEFBO@?$AAr?$AAo?$AA?9?$AAr?$AAo?$AA?$AA@ 0000000180029bb8     LIBCMT:winapinls.obj
 0002:00005bc8       ??_C@_1M@CEEDODME@?$AAr?$AAu?$AA?9?$AAr?$AAu?$AA?$AA@ 0000000180029bc8     LIBCMT:winapinls.obj
 0002:00005bd8       ??_C@_1M@HPKKKMPP@?$AAs?$AAa?$AA?9?$AAi?$AAn?$AA?$AA@ 0000000180029bd8     LIBCMT:winapinls.obj
 0002:00005be8       ??_C@_1M@BKMAIGOJ@?$AAs?$AAe?$AA?9?$AAf?$AAi?$AA?$AA@ 0000000180029be8     LIBCMT:winapinls.obj
 0002:00005bf8       ??_C@_1M@NDPIFLFI@?$AAs?$AAe?$AA?9?$AAn?$AAo?$AA?$AA@ 0000000180029bf8     LIBCMT:winapinls.obj
 0002:00005c08       ??_C@_1M@DANKKHJ@?$AAs?$AAe?$AA?9?$AAs?$AAe?$AA?$AA@ 0000000180029c08     LIBCMT:winapinls.obj
 0002:00005c18       ??_C@_1M@PNBLONPJ@?$AAs?$AAk?$AA?9?$AAs?$AAk?$AA?$AA@ 0000000180029c18     LIBCMT:winapinls.obj
 0002:00005c28       ??_C@_1M@LFMODOAL@?$AAs?$AAl?$AA?9?$AAs?$AAi?$AA?$AA@ 0000000180029c28     LIBCMT:winapinls.obj
 0002:00005c38       ??_C@_1O@DFKOMPG@?$AAs?$AAm?$AAa?$AA?9?$AAn?$AAo?$AA?$AA@ 0000000180029c38     LIBCMT:winapinls.obj
 0002:00005c48       ??_C@_1O@NDKPBNNH@?$AAs?$AAm?$AAa?$AA?9?$AAs?$AAe?$AA?$AA@ 0000000180029c48     LIBCMT:winapinls.obj
 0002:00005c58       ??_C@_1O@PLLKBHAB@?$AAs?$AAm?$AAj?$AA?9?$AAn?$AAo?$AA?$AA@ 0000000180029c58     LIBCMT:winapinls.obj
 0002:00005c68       ??_C@_1O@CLEPOGCA@?$AAs?$AAm?$AAj?$AA?9?$AAs?$AAe?$AA?$AA@ 0000000180029c68     LIBCMT:winapinls.obj
 0002:00005c78       ??_C@_1O@DLGJGKMK@?$AAs?$AAm?$AAn?$AA?9?$AAf?$AAi?$AA?$AA@ 0000000180029c78     LIBCMT:winapinls.obj
 0002:00005c88       ??_C@_1O@OJDJGAJC@?$AAs?$AAm?$AAs?$AA?9?$AAf?$AAi?$AA?$AA@ 0000000180029c88     LIBCMT:winapinls.obj
 0002:00005c98       ??_C@_1M@BOFOGHPB@?$AAs?$AAq?$AA?9?$AAa?$AAl?$AA?$AA@ 0000000180029c98     LIBCMT:winapinls.obj
 0002:00005ca8       ??_C@_1BG@LJBBIPGB@?$AAs?$AAr?$AA?9?$AAb?$AAa?$AA?9?$AAc?$AAy?$AAr?$AAl?$AA?$AA@ 0000000180029ca8     LIBCMT:winapinls.obj
 0002:00005cc0       ??_C@_1BG@JLBENFOE@?$AAs?$AAr?$AA?9?$AAb?$AAa?$AA?9?$AAl?$AAa?$AAt?$AAn?$AA?$AA@ 0000000180029cc0     LIBCMT:winapinls.obj
 0002:00005cd8       ??_C@_1BG@KODPNHE@?$AAs?$AAr?$AA?9?$AAs?$AAp?$AA?9?$AAc?$AAy?$AAr?$AAl?$AA?$AA@ 0000000180029cd8     LIBCMT:winapinls.obj
 0002:00005cf0       ??_C@_1BG@CIOGKHPB@?$AAs?$AAr?$AA?9?$AAs?$AAp?$AA?9?$AAl?$AAa?$AAt?$AAn?$AA?$AA@ 0000000180029cf0     LIBCMT:winapinls.obj
 0002:00005d08       ??_C@_1M@NGFJLMAC@?$AAs?$AAv?$AA?9?$AAf?$AAi?$AA?$AA@ 0000000180029d08     LIBCMT:winapinls.obj
 0002:00005d18       ??_C@_1M@MPJEJAJC@?$AAs?$AAv?$AA?9?$AAs?$AAe?$AA?$AA@ 0000000180029d18     LIBCMT:winapinls.obj
 0002:00005d28       ??_C@_1M@MPNDHLFK@?$AAs?$AAw?$AA?9?$AAk?$AAe?$AA?$AA@ 0000000180029d28     LIBCMT:winapinls.obj
 0002:00005d38       ??_C@_1O@KOHBJJI@?$AAs?$AAy?$AAr?$AA?9?$AAs?$AAy?$AA?$AA@ 0000000180029d38     LIBCMT:winapinls.obj
 0002:00005d48       ??_C@_1M@LDCEFHA@?$AAt?$AAa?$AA?9?$AAi?$AAn?$AA?$AA@ 0000000180029d48     LIBCMT:winapinls.obj
 0002:00005d58       ??_C@_1M@CNJOFAK@?$AAt?$AAe?$AA?9?$AAi?$AAn?$AA?$AA@ 0000000180029d58     LIBCMT:winapinls.obj
 0002:00005d68       ??_C@_1M@GNAECACD@?$AAt?$AAh?$AA?9?$AAt?$AAh?$AA?$AA@ 0000000180029d68     LIBCMT:winapinls.obj
 0002:00005d78       ??_C@_1M@CHBIHOJO@?$AAt?$AAn?$AA?9?$AAz?$AAa?$AA?$AA@ 0000000180029d78     LIBCMT:winapinls.obj
 0002:00005d88       ??_C@_1M@GCCMIGPJ@?$AAt?$AAr?$AA?9?$AAt?$AAr?$AA?$AA@ 0000000180029d88     LIBCMT:winapinls.obj
 0002:00005d98       ??_C@_1M@CELMCNBK@?$AAt?$AAt?$AA?9?$AAr?$AAu?$AA?$AA@ 0000000180029d98     LIBCMT:winapinls.obj
 0002:00005da8       ??_C@_1M@KLMCELGA@?$AAu?$AAk?$AA?9?$AAu?$AAa?$AA?$AA@ 0000000180029da8     LIBCMT:winapinls.obj
 0002:00005db8       ??_C@_1M@EPAJJAJF@?$AAu?$AAr?$AA?9?$AAp?$AAk?$AA?$AA@ 0000000180029db8     LIBCMT:winapinls.obj
 0002:00005dc8       ??_C@_1BG@GEGPMCDJ@?$AAu?$AAz?$AA?9?$AAu?$AAz?$AA?9?$AAc?$AAy?$AAr?$AAl?$AA?$AA@ 0000000180029dc8     LIBCMT:winapinls.obj
 0002:00005de0       ??_C@_1BG@EGGKJILM@?$AAu?$AAz?$AA?9?$AAu?$AAz?$AA?9?$AAl?$AAa?$AAt?$AAn?$AA?$AA@ 0000000180029de0     LIBCMT:winapinls.obj
 0002:00005df8       ??_C@_1M@GFOCLFF@?$AAv?$AAi?$AA?9?$AAv?$AAn?$AA?$AA@ 0000000180029df8     LIBCMT:winapinls.obj
 0002:00005e08       ??_C@_1M@CPAMEDFI@?$AAx?$AAh?$AA?9?$AAz?$AAa?$AA?$AA@ 0000000180029e08     LIBCMT:winapinls.obj
 0002:00005e18       ??_C@_1O@EBKIFIGN@?$AAz?$AAh?$AA?9?$AAc?$AAh?$AAs?$AA?$AA@ 0000000180029e18     LIBCMT:winapinls.obj
 0002:00005e28       ??_C@_1O@NMHPGANE@?$AAz?$AAh?$AA?9?$AAc?$AAh?$AAt?$AA?$AA@ 0000000180029e28     LIBCMT:winapinls.obj
 0002:00005e38       ??_C@_1M@LPINJOMC@?$AAz?$AAh?$AA?9?$AAc?$AAn?$AA?$AA@ 0000000180029e38     LIBCMT:winapinls.obj
 0002:00005e48       ??_C@_1M@OCJEJODD@?$AAz?$AAh?$AA?9?$AAh?$AAk?$AA?$AA@ 0000000180029e48     LIBCMT:winapinls.obj
 0002:00005e58       ??_C@_1M@DNDLJINH@?$AAz?$AAh?$AA?9?$AAm?$AAo?$AA?$AA@ 0000000180029e58     LIBCMT:winapinls.obj
 0002:00005e68       ??_C@_1M@MBFDNDND@?$AAz?$AAh?$AA?9?$AAs?$AAg?$AA?$AA@ 0000000180029e68     LIBCMT:winapinls.obj
 0002:00005e78       ??_C@_1M@IMEPLEPE@?$AAz?$AAh?$AA?9?$AAt?$AAw?$AA?$AA@ 0000000180029e78     LIBCMT:winapinls.obj
 0002:00005e88       ??_C@_1M@BBGHNHJP@?$AAz?$AAu?$AA?9?$AAz?$AAa?$AA?$AA@ 0000000180029e88     LIBCMT:winapinls.obj
 0002:00005eb0       ??_C@_03KHJOGHMM@exp?$AA@  0000000180029eb0     LIBCMT:fpexcept.obj
 0002:00005eb4       ??_C@_03JGHBODFD@pow?$AA@  0000000180029eb4     LIBCMT:fpexcept.obj
 0002:00005eb8       ??_C@_03MGHMBJCF@log?$AA@  0000000180029eb8     LIBCMT:fpexcept.obj
 0002:00005ebc       ??_C@_05HGHHAHAP@log10?$AA@ 0000000180029ebc     LIBCMT:fpexcept.obj
 0002:00005ec4       ??_C@_04COOMCNPB@sinh?$AA@ 0000000180029ec4     LIBCMT:fpexcept.obj
 0002:00005ecc       ??_C@_04HPJJNFIM@cosh?$AA@ 0000000180029ecc     LIBCMT:fpexcept.obj
 0002:00005ed4       ??_C@_04FJHINJAO@tanh?$AA@ 0000000180029ed4     LIBCMT:fpexcept.obj
 0002:00005edc       ??_C@_04FIHNOPOL@asin?$AA@ 0000000180029edc     LIBCMT:fpexcept.obj
 0002:00005ee4       ??_C@_04PDIFKINK@acos?$AA@ 0000000180029ee4     LIBCMT:fpexcept.obj
 0002:00005eec       ??_C@_04MLLJIGOK@atan?$AA@ 0000000180029eec     LIBCMT:fpexcept.obj
 0002:00005ef4       ??_C@_05KNGEOGJB@atan2?$AA@ 0000000180029ef4     LIBCMT:fpexcept.obj
 0002:00005efc       ??_C@_04EIAKFFMI@sqrt?$AA@ 0000000180029efc     LIBCMT:fpexcept.obj
 0002:00005f04       ??_C@_03BLEJJJBH@sin?$AA@  0000000180029f04     LIBCMT:fpexcept.obj
 0002:00005f08       ??_C@_03LALBNOCG@cos?$AA@  0000000180029f08     LIBCMT:fpexcept.obj
 0002:00005f0c       ??_C@_03IIINPABG@tan?$AA@  0000000180029f0c     LIBCMT:fpexcept.obj
 0002:00005f10       ??_C@_04GFPJNGEK@ceil?$AA@ 0000000180029f10     LIBCMT:fpexcept.obj
 0002:00005f18       ??_C@_05PBJFFIGL@floor?$AA@ 0000000180029f18     LIBCMT:fpexcept.obj
 0002:00005f20       ??_C@_04ODHECPBC@fabs?$AA@ 0000000180029f20     LIBCMT:fpexcept.obj
 0002:00005f28       ??_C@_04EHEDPDJG@modf?$AA@ 0000000180029f28     LIBCMT:fpexcept.obj
 0002:00005f30       ??_C@_05CEJMAHNP@ldexp?$AA@ 0000000180029f30     LIBCMT:fpexcept.obj
 0002:00005f38       ??_C@_05KBKMEMPO@_cabs?$AA@ 0000000180029f38     LIBCMT:fpexcept.obj
 0002:00005f40       ??_C@_04KEPJIHGP@fmod?$AA@ 0000000180029f40     LIBCMT:fpexcept.obj
 0002:00005f48       ??_C@_05GKKHEGJL@frexp?$AA@ 0000000180029f48     LIBCMT:fpexcept.obj
 0002:00005f50       ??_C@_03MJLDFKDL@_y0?$AA@  0000000180029f50     LIBCMT:fpexcept.obj
 0002:00005f54       ??_C@_03NAKIGLHK@_y1?$AA@  0000000180029f54     LIBCMT:fpexcept.obj
 0002:00005f58       ??_C@_03ONILCKOB@_yn?$AA@  0000000180029f58     LIBCMT:fpexcept.obj
 0002:00005f5c       ??_C@_05JGDBENOH@_logb?$AA@ 0000000180029f5c     LIBCMT:fpexcept.obj
 0002:00005f68       ??_C@_0L@KDOEJCKC@_nextafter?$AA@ 0000000180029f68     LIBCMT:fpexcept.obj
 0002:00005f80       __newctype                 0000000180029f80     LIBCMT:ctype.obj
 0002:00006280       _wctype                    000000018002a280     LIBCMT:ctype.obj
 0002:00006490       __newclmap                 000000018002a490     LIBCMT:ctype.obj
 0002:00006610       __newcumap                 000000018002a610     LIBCMT:ctype.obj
 0002:00006790       __rg_language_count        000000018002a790     LIBCMT:getqloc.obj
 0002:00006794       __rg_country_count         000000018002a794     LIBCMT:getqloc.obj
 0002:00006ab8       ??_C@_08EHJDFFNH@__based?$CI?$AA@ 000000018002aab8     LIBCMT:undname.obj
 0002:00006ac8       ??_C@_07KOLFKCDI@__cdecl?$AA@ 000000018002aac8     LIBCMT:undname.obj
 0002:00006ad0       ??_C@_08GHMPAG@__pascal?$AA@ 000000018002aad0     LIBCMT:undname.obj
 0002:00006ae0       ??_C@_09IFJBGAPI@__stdcall?$AA@ 000000018002aae0     LIBCMT:undname.obj
 0002:00006af0       ??_C@_0L@NPHFGOKO@__thiscall?$AA@ 000000018002aaf0     LIBCMT:undname.obj
 0002:00006b00       ??_C@_0L@JMKHOMEK@__fastcall?$AA@ 000000018002ab00     LIBCMT:undname.obj
 0002:00006b10       ??_C@_0N@BCKKPABJ@__vectorcall?$AA@ 000000018002ab10     LIBCMT:undname.obj
 0002:00006b20       ??_C@_09HIJEGCPM@__clrcall?$AA@ 000000018002ab20     LIBCMT:undname.obj
 0002:00006b2c       ??_C@_06GHPCKEAG@__eabi?$AA@ 000000018002ab2c     LIBCMT:undname.obj
 0002:00006b38       ??_C@_07JOMMBBKO@__ptr64?$AA@ 000000018002ab38     LIBCMT:undname.obj
 0002:00006b40       ??_C@_0L@PILCLIHE@__restrict?$AA@ 000000018002ab40     LIBCMT:undname.obj
 0002:00006b50       ??_C@_0M@GFIIJFMG@__unaligned?$AA@ 000000018002ab50     LIBCMT:undname.obj
 0002:00006b60       ??_C@_09DHDLOLLB@restrict?$CI?$AA@ 000000018002ab60     LIBCMT:undname.obj
 0002:00006b6c       ??_C@_04NIHEBCM@?5new?$AA@ 000000018002ab6c     LIBCMT:undname.obj
 0002:00006b78       ??_C@_07FPCDHGMM@?5delete?$AA@ 000000018002ab78     LIBCMT:undname.obj
 0002:00006b80       ??_C@_01NEMOKFLO@?$DN?$AA@ 000000018002ab80     LIBCMT:undname.obj
 0002:00006b84       ??_C@_02GPIOPFAK@?$DO?$DO?$AA@ 000000018002ab84     LIBCMT:undname.obj
 0002:00006b88       ??_C@_02FODMEDOG@?$DM?$DM?$AA@ 000000018002ab88     LIBCMT:undname.obj
 0002:00006b8c       ??_C@_01DCLJPIOD@?$CB?$AA@ 000000018002ab8c     LIBCMT:undname.obj
 0002:00006b90       ??_C@_02EGOFBIJA@?$DN?$DN?$AA@ 000000018002ab90     LIBCMT:undname.obj
 0002:00006b94       ??_C@_02FDNJECIE@?$CB?$DN?$AA@ 000000018002ab94     LIBCMT:undname.obj
 0002:00006b98       ??_C@_02GPECMEKF@?$FL?$FN?$AA@ 000000018002ab98     LIBCMT:undname.obj
 0002:00006ba0       ??_C@_08LHJFAFGD@operator?$AA@ 000000018002aba0     LIBCMT:undname.obj
 0002:00006bac       ??_C@_02HBOOOICD@?9?$DO?$AA@ 000000018002abac     LIBCMT:undname.obj
 0002:00006bb0       ??_C@_01NBENCBCI@?$CK?$AA@ 000000018002abb0     LIBCMT:undname.obj
 0002:00006bb4       ??_C@_02ECNGHCIF@?$CL?$CL?$AA@ 000000018002abb4     LIBCMT:undname.obj
 0002:00006bb8       ??_C@_02BAABKJLB@?9?9?$AA@ 000000018002abb8     LIBCMT:undname.obj
 0002:00006bbc       ??_C@_01JOAMLHOP@?9?$AA@   000000018002abbc     LIBCMT:undname.obj
 0002:00006bc0       ??_C@_01MIFGBAGJ@?$CL?$AA@ 000000018002abc0     LIBCMT:undname.obj
 0002:00006bc4       ??_C@_01HNPIGOCE@?$CG?$AA@ 000000018002abc4     LIBCMT:undname.obj
 0002:00006bc8       ??_C@_03MNHNFDLC@?9?$DO?$CK?$AA@ 000000018002abc8     LIBCMT:undname.obj
 0002:00006bcc       ??_C@_01KMDKNFGN@?1?$AA@   000000018002abcc     LIBCMT:undname.obj
 0002:00006bd0       ??_C@_01FGNFDNOH@?$CF?$AA@ 000000018002abd0     LIBCMT:undname.obj
 0002:00006bd4       ??_C@_01MNNFJEPP@?$DM?$AA@ 000000018002abd4     LIBCMT:undname.obj
 0002:00006bd8       ??_C@_02EHCHHCKH@?$DM?$DN?$AA@ 000000018002abd8     LIBCMT:undname.obj
 0002:00006bdc       ??_C@_01PPODPGHN@?$DO?$AA@ 000000018002abdc     LIBCMT:undname.obj
 0002:00006be0       ??_C@_02EEKDKGMJ@?$DO?$DN?$AA@ 000000018002abe0     LIBCMT:undname.obj
 0002:00006be4       ??_C@_01IHBHIGKO@?0?$AA@   000000018002abe4     LIBCMT:undname.obj
 0002:00006be8       ??_C@_02HCKGKOFO@?$CI?$CJ?$AA@ 000000018002abe8     LIBCMT:undname.obj
 0002:00006bec       ??_C@_01PJKLJHI@?$HO?$AA@  000000018002abec     LIBCMT:undname.obj
 0002:00006bf0       ??_C@_01JKBOJNNK@?$FO?$AA@ 000000018002abf0     LIBCMT:undname.obj
 0002:00006bf4       ??_C@_01DNKMNLPK@?$HM?$AA@ 000000018002abf4     LIBCMT:undname.obj
 0002:00006bf8       ??_C@_02PPKAJPJL@?$CG?$CG?$AA@ 000000018002abf8     LIBCMT:undname.obj
 0002:00006bfc       ??_C@_02NONPIBCD@?$HM?$HM?$AA@ 000000018002abfc     LIBCMT:undname.obj
 0002:00006c00       ??_C@_02FPIMKNGF@?$CK?$DN?$AA@ 000000018002ac00     LIBCMT:undname.obj
 0002:00006c04       ??_C@_02FOEOMHFC@?$CL?$DN?$AA@ 000000018002ac04     LIBCMT:undname.obj
 0002:00006c08       ??_C@_02FKMDLLOA@?9?$DN?$AA@ 000000018002ac08     LIBCMT:undname.obj
 0002:00006c0c       ??_C@_02FJEHGPIO@?1?$DN?$AA@ 000000018002ac0c     LIBCMT:undname.obj
 0002:00006c10       ??_C@_02FENAOKFI@?$CF?$DN?$AA@ 000000018002ac10     LIBCMT:undname.obj
 0002:00006c14       ??_C@_03IKFCCPFF@?$DO?$DO?$DN?$AA@ 000000018002ac14     LIBCMT:undname.obj
 0002:00006c18       ??_C@_03CDNPDDLA@?$DM?$DM?$DN?$AA@ 000000018002ac18     LIBCMT:undname.obj
 0002:00006c1c       ??_C@_02FGJGFEAB@?$CG?$DN?$AA@ 000000018002ac1c     LIBCMT:undname.obj
 0002:00006c20       ??_C@_02DHLNPPGH@?$HM?$DN?$AA@ 000000018002ac20     LIBCMT:undname.obj
 0002:00006c24       ??_C@_02MHEGNOJ@?$FO?$DN?$AA@ 000000018002ac24     LIBCMT:undname.obj
 0002:00006c28       ??_C@_09IFPLHPGF@?$GAvftable?8?$AA@ 000000018002ac28     LIBCMT:undname.obj
 0002:00006c38       ??_C@_09BLBHBJP@?$GAvbtable?8?$AA@ 000000018002ac38     LIBCMT:undname.obj
 0002:00006c48       ??_C@_07FEEIOKP@?$GAvcall?8?$AA@ 000000018002ac48     LIBCMT:undname.obj
 0002:00006c50       ??_C@_08LLFFHHDJ@?$GAtypeof?8?$AA@ 000000018002ac50     LIBCMT:undname.obj
 0002:00006c60       ??_C@_0BF@KDPPACIK@?$GAlocal?5static?5guard?8?$AA@ 000000018002ac60     LIBCMT:undname.obj
 0002:00006c78       ??_C@_08OBABFOLI@?$GAstring?8?$AA@ 000000018002ac78     LIBCMT:undname.obj
 0002:00006c88       ??_C@_0BD@JDLKDPAB@?$GAvbase?5destructor?8?$AA@ 000000018002ac88     LIBCMT:undname.obj
 0002:00006ca0       ??_C@_0BN@DEGPLNFK@?$GAvector?5deleting?5destructor?8?$AA@ 000000018002aca0     LIBCMT:undname.obj
 0002:00006cc0       ??_C@_0BO@OBMKPJIG@?$GAdefault?5constructor?5closure?8?$AA@ 000000018002acc0     LIBCMT:undname.obj
 0002:00006ce0       ??_C@_0BN@IMDCHIKM@?$GAscalar?5deleting?5destructor?8?$AA@ 000000018002ace0     LIBCMT:undname.obj
 0002:00006d00       ??_C@_0BO@PFGOCPJJ@?$GAvector?5constructor?5iterator?8?$AA@ 000000018002ad00     LIBCMT:undname.obj
 0002:00006d20       ??_C@_0BN@LFPFMEDL@?$GAvector?5destructor?5iterator?8?$AA@ 000000018002ad20     LIBCMT:undname.obj
 0002:00006d40       ??_C@_0CE@IKBNEHA@?$GAvector?5vbase?5constructor?5iterat@ 000000018002ad40     LIBCMT:undname.obj
 0002:00006d68       ??_C@_0BL@NILFHHPC@?$GAvirtual?5displacement?5map?8?$AA@ 000000018002ad68     LIBCMT:undname.obj
 0002:00006d88       ??_C@_0CB@JONCMFFK@?$GAeh?5vector?5constructor?5iterator?8@ 000000018002ad88     LIBCMT:undname.obj
 0002:00006db0       ??_C@_0CA@GCEOPDGL@?$GAeh?5vector?5destructor?5iterator?8?$AA@ 000000018002adb0     LIBCMT:undname.obj
 0002:00006dd0       ??_C@_0CH@OOJPLCPH@?$GAeh?5vector?5vbase?5constructor?5ite@ 000000018002add0     LIBCMT:undname.obj
 0002:00006df8       ??_C@_0BL@LLKPOHJI@?$GAcopy?5constructor?5closure?8?$AA@ 000000018002adf8     LIBCMT:undname.obj
 0002:00006e18       ??_C@_0BA@KBCDOMBN@?$GAudt?5returning?8?$AA@ 000000018002ae18     LIBCMT:undname.obj
 0002:00006e28       ??_C@_03KLGMFNMG@?$GAEH?$AA@ 000000018002ae28     LIBCMT:undname.obj
 0002:00006e2c       ??_C@_05KHLCHHI@?$GARTTI?$AA@ 000000018002ae2c     LIBCMT:undname.obj
 0002:00006e38       ??_C@_0BA@KKLDJDLB@?$GAlocal?5vftable?8?$AA@ 000000018002ae38     LIBCMT:undname.obj
 0002:00006e48       ??_C@_0CE@IIHCMGGL@?$GAlocal?5vftable?5constructor?5closu@ 000000018002ae48     LIBCMT:undname.obj
 0002:00006e6c       ??_C@_06FHBGPFGH@?5new?$FL?$FN?$AA@ 000000018002ae6c     LIBCMT:undname.obj
 0002:00006e78       ??_C@_09LBNFPBCA@?5delete?$FL?$FN?$AA@ 000000018002ae78     LIBCMT:undname.obj
 0002:00006e88       ??_C@_0P@HJKNJFNN@?$GAomni?5callsig?8?$AA@ 000000018002ae88     LIBCMT:undname.obj
 0002:00006e98       ??_C@_0BL@CNOONJFP@?$GAplacement?5delete?5closure?8?$AA@ 000000018002ae98     LIBCMT:undname.obj
 0002:00006eb8       ??_C@_0BN@CKNJLHMB@?$GAplacement?5delete?$FL?$FN?5closure?8?$AA@ 000000018002aeb8     LIBCMT:undname.obj
 0002:00006ed8       ??_C@_0CG@CFDHKGGD@?$GAmanaged?5vector?5constructor?5iter@ 000000018002aed8     LIBCMT:undname.obj
 0002:00006f00       ??_C@_0CF@IMGKMJNO@?$GAmanaged?5vector?5destructor?5itera@ 000000018002af00     LIBCMT:undname.obj
 0002:00006f28       ??_C@_0CG@HLDDJMAG@?$GAeh?5vector?5copy?5constructor?5iter@ 000000018002af28     LIBCMT:undname.obj
 0002:00006f50       ??_C@_0CM@FCBBDIGB@?$GAeh?5vector?5vbase?5copy?5constructo@ 000000018002af50     LIBCMT:undname.obj
 0002:00006f80       ??_C@_0BL@CLIPGLGB@?$GAdynamic?5initializer?5for?5?8?$AA@ 000000018002af80     LIBCMT:undname.obj
 0002:00006fa0       ??_C@_0CB@PDBIFEP@?$GAdynamic?5atexit?5destructor?5for?5?8@ 000000018002afa0     LIBCMT:undname.obj
 0002:00006fc8       ??_C@_0CD@CGAJBKEJ@?$GAvector?5copy?5constructor?5iterato@ 000000018002afc8     LIBCMT:undname.obj
 0002:00006ff0       ??_C@_0CJ@GJELGAMM@?$GAvector?5vbase?5copy?5constructor?5i@ 000000018002aff0     LIBCMT:undname.obj
 0002:00007020       ??_C@_0CL@FGIJHLCE@?$GAmanaged?5vector?5copy?5constructor@ 000000018002b020     LIBCMT:undname.obj
 0002:00007050       ??_C@_0BM@PMGGMLDN@?$GAlocal?5static?5thread?5guard?8?$AA@ 000000018002b050     LIBCMT:undname.obj
 0002:00007070       ??_C@_0BC@DAFEJGAK@?5Type?5Descriptor?8?$AA@ 000000018002b070     LIBCMT:undname.obj
 0002:00007088       ??_C@_0BM@LDKODKLH@?5Base?5Class?5Descriptor?5at?5?$CI?$AA@ 000000018002b088     LIBCMT:undname.obj
 0002:000070a8       ??_C@_0BD@LGICGFMM@?5Base?5Class?5Array?8?$AA@ 000000018002b0a8     LIBCMT:undname.obj
 0002:000070c0       ??_C@_0BN@MECKDCOJ@?5Class?5Hierarchy?5Descriptor?8?$AA@ 000000018002b0c0     LIBCMT:undname.obj
 0002:000070e0       ??_C@_0BK@CFCOFLF@?5Complete?5Object?5Locator?8?$AA@ 000000018002b0e0     LIBCMT:undname.obj
 0002:000070fc       ??_C@_06OJHGLDPL@?$CInull?$CJ?$AA@ 000000018002b0fc     LIBCMT:output.obj
 0002:00007108       ??_C@_1O@CEDCILHN@?$AA?$CI?$AAn?$AAu?$AAl?$AAl?$AA?$CJ?$AA?$AA@ 000000018002b108     LIBCMT:output.obj
 0002:00007120       __lookuptable              000000018002b120     LIBCMT:output.obj
 0002:00007180       __lookuptable_s            000000018002b180     LIBCMT:outputs.obj
 0002:000071dc       ??_C@_06PGGFOGJG@1?$CDSNAN?$AA@ 000000018002b1dc     LIBCMT:x10fout.obj
 0002:000071e4       ??_C@_05PHHOCPM@1?$CDIND?$AA@ 000000018002b1e4     LIBCMT:x10fout.obj
 0002:000071ec       ??_C@_05DNEBIAHO@1?$CDINF?$AA@ 000000018002b1ec     LIBCMT:x10fout.obj
 0002:000071f4       ??_C@_06IMKFLFPG@1?$CDQNAN?$AA@ 000000018002b1f4     LIBCMT:x10fout.obj
 0002:00007200       ??_C@_1BA@BALFACEM@?$AAC?$AAO?$AAN?$AAO?$AAU?$AAT?$AA$?$AA?$AA@ 000000018002b200     LIBCMT:initcon.obj
 0002:00007210       ??_C@_04IHONJAFL@make?$AA@ 000000018002b210     binding.obj
 0002:00007218       ??_C@_07ONPFMHHK@convert?$AA@ 000000018002b218     binding.obj
 0002:00007220       ??_C@_06HIMGHAFD@EINVAL?$AA@ 000000018002b220     binding.obj
 0002:00007228       ??_C@_06MNLNBHMB@EILSEQ?$AA@ 000000018002b228     binding.obj
 0002:00007230       ??_C@_05DLCHNBFO@E2BIG?$AA@ 000000018002b230     binding.obj
 0002:00007238       ??_C@_0BC@OMDPIAIO@?4?4?2src?2binding?4cc?$AA@ 000000018002b238     binding.obj
 0002:00007250       ??_C@_08NJCMPDLN@libiconv?$AA@ 000000018002b250     binding.obj
 0002:00007260       ??_C@_0L@NPDEOAMO@?1?1TRANSLIT?$AA@ 000000018002b260     iconv.obj
 0002:00007270       ??_C@_08GBKEDDHK@?1?1IGNORE?$AA@ 000000018002b270     iconv.obj
 0002:00007279       ??_C@_00CNPNBAHC@?$AA@     000000018002b279     iconv.obj
 0002:000e3e08       ??_C@_08HCOMDCCD@iojs?4exe?$AA@ 0000000180107e08     win_delay_load_hook.obj
 0002:000e3e18       ??_C@_08JDDNMFDB@node?4exe?$AA@ 0000000180107e18     win_delay_load_hook.obj
 0002:000e3e30       _load_config_used          0000000180107e30     LIBCMT:loadcfg.obj
 0002:000e3f20       ??_R1A@?0A@EA@exception@std@@8 0000000180107f20     libcpmt:xthrow.obj
 0002:000e3f48       ??_R3exception@std@@8      0000000180107f48     libcpmt:xthrow.obj
 0002:000e3f60       ??_R2exception@std@@8      0000000180107f60     libcpmt:xthrow.obj
 0002:000e3f70       ??_R4bad_alloc@std@@6B@    0000000180107f70     libcpmt:xthrow.obj
 0002:000e3f98       ??_R3bad_alloc@std@@8      0000000180107f98     libcpmt:xthrow.obj
 0002:000e3fb0       ??_R2bad_alloc@std@@8      0000000180107fb0     libcpmt:xthrow.obj
 0002:000e3fc8       ??_R1A@?0A@EA@bad_alloc@std@@8 0000000180107fc8     libcpmt:xthrow.obj
 0002:000e3ff0       ??_R4type_info@@6B@        0000000180107ff0     LIBCMT:typinfo.obj
 0002:000e4018       ??_R3type_info@@8          0000000180108018     LIBCMT:typinfo.obj
 0002:000e4030       ??_R2type_info@@8          0000000180108030     LIBCMT:typinfo.obj
 0002:000e4040       ??_R1A@?0A@EA@type_info@@8 0000000180108040     LIBCMT:typinfo.obj
 0002:000e4068       ??_R4exception@std@@6B@    0000000180108068     LIBCMT:stdexcpt.obj
 0002:000e4090       __rtc_iaa                  0000000180108090     LIBCMT:initsect.obj
 0002:000e4098       __rtc_izz                  0000000180108098     LIBCMT:initsect.obj
 0002:000e40a0       __rtc_taa                  00000001801080a0     LIBCMT:initsect.obj
 0002:000e40a8       __rtc_tzz                  00000001801080a8     LIBCMT:initsect.obj
 0002:000e4ff8       _TI2?AVbad_alloc@std@@     0000000180108ff8     libcpmt:xthrow.obj
 0002:000e5018       _CTA2?AVbad_alloc@std@@    0000000180109018     libcpmt:xthrow.obj
 0002:000e5030       _CT??_R0?AVbad_alloc@std@@@8??0bad_alloc@std@@QEAA@AEBV01@@Z24 0000000180109030     libcpmt:xthrow.obj
 0002:000e5058       _CT??_R0?AVexception@std@@@8??0exception@std@@QEAA@AEBV01@@Z24 0000000180109058     libcpmt:xthrow.obj
 0002:000e507c       __DELAY_IMPORT_DESCRIPTOR_node_exe 000000018010907c     node:node.exe
 0002:000e509c       __NULL_DELAY_IMPORT_DESCRIPTOR 000000018010909c     node:node.exe
 0002:000e51e0       \177node_NULL_THUNK_DATA_DLN 00000001801091e0     node:node.exe
 0002:000e5b60       \177node_NULL_THUNK_DATA_DLB 0000000180109b60     node:node.exe
 0002:000e5cd4       __IMPORT_DESCRIPTOR_KERNEL32 0000000180109cd4     kernel32:KERNEL32.dll
 0002:000e5ce8       __NULL_IMPORT_DESCRIPTOR   0000000180109ce8     kernel32:KERNEL32.dll
 0003:000001d8       __abort_behavior           000000018010b1d8     LIBCMT:abort.obj
 0003:000001e0       _fltused                   000000018010b1e0     LIBCMT:fpinit.obj
 0003:000001e4       _ldused                    000000018010b1e4     LIBCMT:fpinit.obj
 0003:000001e8       __security_cookie          000000018010b1e8     LIBCMT:gs_cookie.obj
 0003:000001f0       __security_cookie_complement 000000018010b1f0     LIBCMT:gs_cookie.obj
 0003:000001f8       __isa_available            000000018010b1f8     LIBCMT:cpu_disp.obj
 0003:000001fc       __isa_enabled              000000018010b1fc     LIBCMT:cpu_disp.obj
 0003:00000200       __flsindex                 000000018010b200     LIBCMT:tidtable.obj
 0003:00000210       _iob                       000000018010b210     LIBCMT:_file.obj
 0003:000005e0       _mbctype                   000000018010b5e0     LIBCMT:mbctype.obj
 0003:000006f0       _mbcasemap                 000000018010b6f0     LIBCMT:mbctype.obj
 0003:000007f0       __initialmbcinfo           000000018010b7f0     LIBCMT:mbctype.obj
 0003:00000b10       __ptmbcinfo                000000018010bb10     LIBCMT:mbctype.obj
 0003:00000b18       __mb_cur_max               000000018010bb18     LIBCMT:nlsdata.obj
 0003:00000b1c       __wclocalestr              000000018010bb1c     LIBCMT:nlsdata.obj
 0003:00000b20       __lc_time_c                000000018010bb20     LIBCMT:nlsdata.obj
 0003:00000de0       __ptlocinfo                000000018010bde0     LIBCMT:nlsdata.obj
 0003:00000df0       __initiallocinfo           000000018010bdf0     LIBCMT:nlsdata.obj
 0003:00000f48       __globallocalestatus       000000018010bf48     LIBCMT:glstatus.obj
 0003:00000f60       __badioinfo                000000018010bf60     LIBCMT:ioinit.obj
 0003:00000fc0       _cfltcvt_tab               000000018010bfc0     LIBCMT:cmiscdat.obj
 0003:00001420       _matherr_flag              000000018010c420     LIBCMT:matherr.obj
 0003:00001430       __lconv_c                  000000018010c430     LIBCMT:lconv.obj
 0003:000014c8       __lconv_static_decimal     000000018010c4c8     LIBCMT:lconv.obj
 0003:000014cc       __lconv_static_W_decimal   000000018010c4cc     LIBCMT:lconv.obj
 0003:000014d0       __lconv                    000000018010c4d0     LIBCMT:lconv.obj
 0003:000014d8       _pctype                    000000018010c4d8     LIBCMT:ctype.obj
 0003:000014e0       _pwctype                   000000018010c4e0     LIBCMT:ctype.obj
 0003:000014f0       __nullstring               000000018010c4f0     LIBCMT:output.obj
 0003:000014f8       __wnullstring              000000018010c4f8     LIBCMT:output.obj
 0003:00001500       _d_inf                     000000018010c500     LIBCMT:util.obj
 0003:00001508       _d_ind                     000000018010c508     LIBCMT:util.obj
 0003:00001510       _d_max                     000000018010c510     LIBCMT:util.obj
 0003:00001518       _d_min                     000000018010c518     LIBCMT:util.obj
 0003:00001520       _d_mzero                   000000018010c520     LIBCMT:util.obj
 0003:00001558       _confh                     000000018010c558     LIBCMT:initcon.obj
 0003:00001560       _pow10pos                  000000018010c560     LIBCMT:constpow.obj
 0003:000016c0       _pow10neg                  000000018010c6c0     LIBCMT:constpow.obj
 0003:00001820       _HUGE                      000000018010c820     LIBCMT:huge.obj
 0003:00001870       __pfnDliNotifyHook2        000000018010c870     win_delay_load_hook.obj
 0003:00001878       ??_R0?AVbad_alloc@std@@@8  000000018010c878     libcpmt:xthrow.obj
 0003:000018a0       ??_R0?AVexception@std@@@8  000000018010c8a0     libcpmt:xthrow.obj
 0003:000018c8       ??_R0?AVtype_info@@@8      000000018010c8c8     LIBCMT:typinfo.obj
 0003:000018e8       __imp_?Data@Buffer@node@@YAPEADV?$Local@VObject@v8@@@v8@@@Z 000000018010c8e8     node:node.exe
 0003:000018f0       __imp_node_module_register 000000018010c8f0     node:node.exe
 0003:000018f8       __imp_?ToLocalEmpty@V8@v8@@CAXXZ 000000018010c8f8     node:node.exe
 0003:00001900       __imp_?MakeWeak@V8@v8@@CAXPEAPEAVObject@internal@2@PEAXP6AXAEBV?$WeakCallbackInfo@X@2@@ZW4WeakCallbackType@2@@Z 000000018010c900     node:node.exe
 0003:00001908       __imp_?DisposeGlobal@V8@v8@@CAXPEAPEAVObject@internal@2@@Z 000000018010c908     node:node.exe
 0003:00001910       __imp_?GlobalizeReference@V8@v8@@CAPEAPEAVObject@internal@2@PEAVIsolate@42@PEAPEAV342@@Z 000000018010c910     node:node.exe
 0003:00001918       __imp_?Escape@EscapableHandleScope@v8@@AEAAPEAPEAVObject@internal@2@PEAPEAV342@@Z 000000018010c918     node:node.exe
 0003:00001920       __imp_??0EscapableHandleScope@v8@@QEAA@PEAVIsolate@1@@Z 000000018010c920     node:node.exe
 0003:00001928       __imp_?Uint32Value@Value@v8@@QEBAIXZ 000000018010c928     node:node.exe
 0003:00001930       __imp_?BooleanValue@Value@v8@@QEBA_NXZ 000000018010c930     node:node.exe
 0003:00001938       __imp_?ToInteger@Value@v8@@QEBA?AV?$MaybeLocal@VInteger@v8@@@2@V?$Local@VContext@v8@@@2@@Z 000000018010c938     node:node.exe
 0003:00001940       __imp_?GetFunction@FunctionTemplate@v8@@QEAA?AV?$Local@VFunction@v8@@@2@XZ 000000018010c940     node:node.exe
 0003:00001948       __imp_?New@FunctionTemplate@v8@@SA?AV?$Local@VFunctionTemplate@v8@@@2@PEAVIsolate@2@P6AXAEBV?$FunctionCallbackInfo@VValue@v8@@@2@@ZV?$Local@VValue@v8@@@2@V?$Local@VSignature@v8@@@2@H@Z 000000018010c948     node:node.exe
 0003:00001950       __imp_??1Utf8Value@String@v8@@QEAA@XZ 000000018010c950     node:node.exe
 0003:00001958       __imp_??0Utf8Value@String@v8@@QEAA@V?$Local@VValue@v8@@@2@@Z 000000018010c958     node:node.exe
 0003:00001960       __imp_?NewFromUtf8@String@v8@@SA?AV?$MaybeLocal@VString@v8@@@2@PEAVIsolate@2@PEBDW4NewStringType@2@H@Z 000000018010c960     node:node.exe
 0003:00001968       __imp_?CreateHandle@HandleScope@v8@@KAPEAPEAVObject@internal@2@PEAVIsolate@42@PEAV342@@Z 000000018010c968     node:node.exe
 0003:00001970       __imp_?CreateHandle@HandleScope@v8@@CAPEAPEAVObject@internal@2@PEAVHeapObject@42@PEAV342@@Z 000000018010c970     node:node.exe
 0003:00001978       __imp_??1HandleScope@v8@@QEAA@XZ 000000018010c978     node:node.exe
 0003:00001980       __imp_?SlowGetAlignedPointerFromInternalField@Object@v8@@AEAAPEAXH@Z 000000018010c980     node:node.exe
 0003:00001988       __imp_?SlowGetInternalField@Object@v8@@AEAA?AV?$Local@VValue@v8@@@2@H@Z 000000018010c988     node:node.exe
 0003:00001990       __imp_?SetAlignedPointerInInternalField@Object@v8@@QEAAXHPEAX@Z 000000018010c990     node:node.exe
 0003:00001998       __imp_?SetInternalField@Object@v8@@QEAAXHV?$Local@VValue@v8@@@2@@Z 000000018010c998     node:node.exe
 0003:000019a0       __imp_?Set@Object@v8@@QEAA_NV?$Local@VValue@v8@@@2@0@Z 000000018010c9a0     node:node.exe
 0003:000019a8       __imp_?Set@Object@v8@@QEAA_NIV?$Local@VValue@v8@@@2@@Z 000000018010c9a8     node:node.exe
 0003:000019b0       __imp_?SetInternalFieldCount@ObjectTemplate@v8@@QEAAXH@Z 000000018010c9b0     node:node.exe
 0003:000019b8       __imp_?NewInstance@ObjectTemplate@v8@@QEAA?AV?$Local@VObject@v8@@@2@XZ 000000018010c9b8     node:node.exe
 0003:000019c0       __imp_?NewInstance@ObjectTemplate@v8@@QEAA?AV?$MaybeLocal@VObject@v8@@@2@V?$Local@VContext@v8@@@2@@Z 000000018010c9c0     node:node.exe
 0003:000019c8       __imp_?New@ObjectTemplate@v8@@SA?AV?$Local@VObjectTemplate@v8@@@2@PEAVIsolate@2@V?$Local@VFunctionTemplate@v8@@@2@@Z 000000018010c9c8     node:node.exe
 0003:000019d0       __imp_?New@ObjectTemplate@v8@@SA?AV?$Local@VObjectTemplate@v8@@@2@XZ 000000018010c9d0     node:node.exe
 0003:000019d8       __imp_?NewFromUnsigned@Integer@v8@@SA?AV?$Local@VInteger@v8@@@2@PEAVIsolate@2@I@Z 000000018010c9d8     node:node.exe
 0003:000019e0       __imp_?New@Integer@v8@@SA?AV?$Local@VInteger@v8@@@2@PEAVIsolate@2@H@Z 000000018010c9e0     node:node.exe
 0003:000019e8       __imp_?GetCurrentContext@Isolate@v8@@QEAA?AV?$Local@VContext@v8@@@2@XZ 000000018010c9e8     node:node.exe
 0003:000019f0       __imp_?GetCurrent@Isolate@v8@@SAPEAV12@XZ 000000018010c9f0     node:node.exe
 0003:000019f8       __imp_?Value@External@v8@@QEBAPEAXXZ 000000018010c9f8     node:node.exe
 0003:00001a00       __imp_?New@External@v8@@SA?AV?$Local@VExternal@v8@@@2@PEAVIsolate@2@PEAX@Z 000000018010ca00     node:node.exe
 0003:00001a08       \177node_NULL_THUNK_DATA_DLA 000000018010ca08     node:node.exe
 0003:00001a20       __hmod__node_exe           000000018010ca20     node:node.exe
 0003:00001a38       _aenvptr                   000000018010ca38     LIBCMT:dllcrt0.obj
 0003:00001a40       _wenvptr                   000000018010ca40     LIBCMT:dllcrt0.obj
 0003:00001a48       __fastflag                 000000018010ca48     LIBCMT:fpinit.obj
 0003:00001fc4       __favor                    000000018010cfc4     LIBCMT:cpu_disp.obj
 0003:00001fc8       __pInvalidArgHandler       000000018010cfc8     LIBCMT:invarg.obj
 0003:00001fd0       _C_Exit_Done               000000018010cfd0     LIBCMT:crt0dat.obj
 0003:00001fd4       __argc                     000000018010cfd4     LIBCMT:crt0dat.obj
 0003:00001fd8       __argv                     000000018010cfd8     LIBCMT:crt0dat.obj
 0003:00001fe0       __wargv                    000000018010cfe0     LIBCMT:crt0dat.obj
 0003:00001fe8       _environ                   000000018010cfe8     LIBCMT:crt0dat.obj
 0003:00001ff0       _wenviron                  000000018010cff0     LIBCMT:crt0dat.obj
 0003:00001ff8       _pgmptr                    000000018010cff8     LIBCMT:crt0dat.obj
 0003:00002000       _wpgmptr                   000000018010d000     LIBCMT:crt0dat.obj
 0003:00002008       _umaskval                  000000018010d008     LIBCMT:crt0dat.obj
 0003:0000200c       _exitflag                  000000018010d00c     LIBCMT:crt0dat.obj
 0003:00002010       _C_Termination_Done        000000018010d010     LIBCMT:crt0dat.obj
 0003:00002018       __winitenv                 000000018010d018     LIBCMT:crt0dat.obj
 0003:00002020       __initenv                  000000018010d020     LIBCMT:crt0dat.obj
 0003:00002028       __error_mode               000000018010d028     LIBCMT:errmode.obj
 0003:0000202c       _cflush                    000000018010d02c     LIBCMT:_file.obj
 0003:00002080       __app_type                 000000018010d080     LIBCMT:crt0msg.obj
 0003:000026b8       _maxwait                   000000018010d6b8     LIBCMT:crtheap.obj
 0003:000026c0       __pPurecall                000000018010d6c0     LIBCMT:inithelp.obj
 0003:000026c8       ?_pnhHeap@@3P6AH_K@ZEA     000000018010d6c8     LIBCMT:handler.obj
 0003:000026d0       _crtheap                   000000018010d6d0     LIBCMT:heapinit.obj
 0003:000026d8       _newmode                   000000018010d6d8     LIBCMT:_newmode.obj
 0003:000026e0       __mbcodepage               000000018010d6e0     LIBCMT:mbctype.obj
 0003:000026e4       __ismbcodepage             000000018010d6e4     LIBCMT:mbctype.obj
 0003:000026e8       __mbulinfo                 000000018010d6e8     LIBCMT:mbctype.obj
 0003:000026f8       __mblocalename             000000018010d6f8     LIBCMT:mbctype.obj
 0003:00002704       __locale_changed           000000018010d704     LIBCMT:wsetloca.obj
 0003:00002710       __pioinfo                  000000018010d710     LIBCMT:ioinit.obj
 0003:00002a18       ?g_OutOfMemoryExceptionCallback@@3P6APEAXXZEA 000000018010da18     LIBCMT:frame.obj
 0003:00002a20       ?__pInconsistency@@3P6AXXZEA 000000018010da20     LIBCMT:hooks.obj
 0003:00002c78       _stdbuf                    000000018010dc78     LIBCMT:_sftbuf.obj
 0003:00002c90       __lconv_static_null        000000018010dc90     LIBCMT:lconv.obj
 0003:00002c94       __lconv_static_W_null      000000018010dc94     LIBCMT:lconv.obj
 0003:00002c98       ?m_pGetParameter@UnDecorator@@0P6APEADJ@ZEA 000000018010dc98     LIBCMT:undname.obj
 0003:00002ca0       ?pArgList@UnDecorator@@0PEAVReplicator@@EA 000000018010dca0     LIBCMT:undname.obj
 0003:00002ca8       ?pZNameList@UnDecorator@@0PEAVReplicator@@EA 000000018010dca8     LIBCMT:undname.obj
 0003:00002cb0       ?pTemplateArgList@UnDecorator@@0PEAVReplicator@@EA 000000018010dcb0     LIBCMT:undname.obj
 0003:00002cb8       ?gName@UnDecorator@@0PEBDEB 000000018010dcb8     LIBCMT:undname.obj
 0003:00002cc0       ?name@UnDecorator@@0PEBDEB 000000018010dcc0     LIBCMT:undname.obj
 0003:00002cc8       ?outputString@UnDecorator@@0PEADEA 000000018010dcc8     LIBCMT:undname.obj
 0003:00002cd0       ?maxStringLength@UnDecorator@@0HA 000000018010dcd0     LIBCMT:undname.obj
 0003:00002cd4       ?disableFlags@UnDecorator@@0KA 000000018010dcd4     LIBCMT:undname.obj
 0003:00002cd8       ?fExplicitTemplateParams@UnDecorator@@0_NA 000000018010dcd8     LIBCMT:undname.obj
 0003:00002cd9       ?fGetTemplateArgumentList@UnDecorator@@0_NA 000000018010dcd9     LIBCMT:undname.obj
 0003:00002d08       _outputformat              000000018010dd08     LIBCMT:outputformat.obj
 0003:00002d18       __pfnDliFailureHook2       000000018010dd18     DelayImp:delayhk1.obj
 0003:00002d20       ?id@?$num_put@_WV?$back_insert_iterator@V?$basic_string@_WU?$char_traits@_W@std@@V?$allocator@_W@2@@std@@@std@@@std@@2V0locale@2@A 000000018010dd20     binding.obj
 0003:00002d28       ?_System_object@?$_Error_objects@H@std@@2V_System_error_category@2@A 000000018010dd28     binding.obj
 0003:00002d30       ?id@?$numpunct@_W@std@@2V0locale@2@A 000000018010dd30     binding.obj
 0003:00002d38       ?id@?$num_put@DV?$back_insert_iterator@V?$basic_string@DU?$char_traits@D@std@@V?$allocator@D@2@@std@@@std@@@std@@2V0locale@2@A 000000018010dd38     binding.obj
 0003:00002d40       ?_Iostream_object@?$_Error_objects@H@std@@2V_Iostream_error_category@2@A 000000018010dd40     binding.obj
 0003:00002d50       ?object_template@Iconv@?A0xe8528b84@@2V?$Persistent@VObjectTemplate@v8@@V?$NonCopyablePersistentTraits@VObjectTemplate@v8@@@2@@Nan@@A 000000018010dd50     binding.obj
 0003:00002d58       ?_Generic_object@?$_Error_objects@H@std@@2V_Generic_error_category@2@A 000000018010dd58     binding.obj
 0003:00002d60       ?id@?$numpunct@D@std@@2V0locale@2@A 000000018010dd60     binding.obj
 0003:00002d68       _debugger_hook_dummy       000000018010dd68     <common>
 0003:00002d80       encodedKERNEL32Functions   000000018010dd80     <common>
 0003:00002e88       _nhandle                   000000018010de88     <common>
 0003:00002e90       __piob                     000000018010de90     <common>
 0003:00002e98       _nstream                   000000018010de98     <common>
 0003:00002ea0       _bufin                     000000018010dea0     <common>
 0003:00003ea0       __dyn_tls_init_callback    000000018010eea0     <common>
 0003:00003ea8       __onexitend                000000018010eea8     <common>
 0003:00003eb0       __onexitbegin              000000018010eeb0     <common>
 0003:00003eb8       __mbctype_initialized      000000018010eeb8     <common>
 0003:00003ebc       __env_initialized          000000018010eebc     <common>
 0003:00003ec0       _acmdln                    000000018010eec0     <common>

 entry point at        0001:00017c14

 Static symbols

 0000:ffeec000       .debug$S                   0000000180000000     kernel32:KERNEL32.dll
 0000:ffeec000       .debug$S                   0000000180000000     kernel32:KERNEL32.dll
 0000:ffeec000       .debug$S                   0000000180000000     kernel32:KERNEL32.dll
 0000:ffeec000       .debug$S                   0000000180000000     kernel32:KERNEL32.dll
 0000:ffeec000       .debug$S                   0000000180000000     kernel32:KERNEL32.dll
 0000:ffeec000       .debug$S                   0000000180000000     kernel32:KERNEL32.dll
 0000:ffeec000       .debug$S                   0000000180000000     kernel32:KERNEL32.dll
 0000:ffeec000       .debug$S                   0000000180000000     kernel32:KERNEL32.dll
 0000:ffeec000       .debug$S                   0000000180000000     kernel32:KERNEL32.dll
 0000:ffeec000       .debug$S                   0000000180000000     kernel32:KERNEL32.dll
 0000:ffeec000       .debug$S                   0000000180000000     kernel32:KERNEL32.dll
 0000:ffeec000       .debug$S                   0000000180000000     kernel32:KERNEL32.dll
 0000:ffeec000       .debug$S                   0000000180000000     kernel32:KERNEL32.dll
 0000:ffeec000       .debug$S                   0000000180000000     kernel32:KERNEL32.dll
 0000:ffeec000       .debug$S                   0000000180000000     kernel32:KERNEL32.dll
 0000:ffeec000       .debug$S                   0000000180000000     kernel32:KERNEL32.dll
 0000:ffeec000       .debug$S                   0000000180000000     kernel32:KERNEL32.dll
 0000:ffeec000       .debug$S                   0000000180000000     kernel32:KERNEL32.dll
 0000:ffeec000       .debug$S                   0000000180000000     kernel32:KERNEL32.dll
 0000:ffeec000       .debug$S                   0000000180000000     kernel32:KERNEL32.dll
 0000:ffeec000       .debug$S                   0000000180000000     kernel32:KERNEL32.dll
 0000:ffeec000       .debug$S                   0000000180000000     kernel32:KERNEL32.dll
 0000:ffeec000       .debug$S                   0000000180000000     kernel32:KERNEL32.dll
 0000:ffeec000       .debug$S                   0000000180000000     kernel32:KERNEL32.dll
 0000:ffeec000       .debug$S                   0000000180000000     kernel32:KERNEL32.dll
 0000:ffeec000       .debug$S                   0000000180000000     kernel32:KERNEL32.dll
 0000:ffeec000       .debug$S                   0000000180000000     kernel32:KERNEL32.dll
 0000:ffeec000       .debug$S                   0000000180000000     kernel32:KERNEL32.dll
 0000:ffeec000       .debug$S                   0000000180000000     kernel32:KERNEL32.dll
 0000:ffeec000       .debug$S                   0000000180000000     kernel32:KERNEL32.dll
 0000:ffeec000       .debug$S                   0000000180000000     kernel32:KERNEL32.dll
 0000:ffeec000       .debug$S                   0000000180000000     kernel32:KERNEL32.dll
 0000:ffeec000       .debug$S                   0000000180000000     kernel32:KERNEL32.dll
 0000:ffeec000       .debug$S                   0000000180000000     kernel32:KERNEL32.dll
 0000:ffeec000       .debug$S                   0000000180000000     kernel32:KERNEL32.dll
 0000:ffeec000       .debug$S                   0000000180000000     kernel32:KERNEL32.dll
 0000:ffeec000       .debug$S                   0000000180000000     kernel32:KERNEL32.dll
 0000:ffeec000       .debug$S                   0000000180000000     kernel32:KERNEL32.dll
 0000:ffeec000       .debug$S                   0000000180000000     kernel32:KERNEL32.dll
 0000:ffeec000       .debug$S                   0000000180000000     kernel32:KERNEL32.dll
 0000:ffeec000       .debug$S                   0000000180000000     kernel32:KERNEL32.dll
 0000:ffeec000       .debug$S                   0000000180000000     kernel32:KERNEL32.dll
 0000:ffeec000       .debug$S                   0000000180000000     kernel32:KERNEL32.dll
 0000:ffeec000       .debug$S                   0000000180000000     kernel32:KERNEL32.dll
 0000:ffeec000       .debug$S                   0000000180000000     kernel32:KERNEL32.dll
 0000:ffeec000       .debug$S                   0000000180000000     kernel32:KERNEL32.dll
 0000:ffeec000       .debug$S                   0000000180000000     kernel32:KERNEL32.dll
 0000:ffeec000       .debug$S                   0000000180000000     kernel32:KERNEL32.dll
 0000:ffeec000       .debug$S                   0000000180000000     kernel32:KERNEL32.dll
 0000:ffeec000       .debug$S                   0000000180000000     kernel32:KERNEL32.dll
 0000:ffeec000       .debug$S                   0000000180000000     kernel32:KERNEL32.dll
 0000:ffeec000       .debug$S                   0000000180000000     kernel32:KERNEL32.dll
 0000:ffeec000       .debug$S                   0000000180000000     node:node.exe
 0000:ffeec000       .debug$S                   0000000180000000     node:node.exe
 0000:ffeec000       .debug$S                   0000000180000000     node:node.exe
 0000:ffeec000       .debug$S                   0000000180000000     node:node.exe
 0000:ffeec000       .debug$S                   0000000180000000     node:node.exe
 0000:ffeec000       .debug$S                   0000000180000000     node:node.exe
 0000:ffeec000       .debug$S                   0000000180000000     node:node.exe
 0000:ffeec000       .debug$S                   0000000180000000     node:node.exe
 0000:ffeec000       .debug$S                   0000000180000000     node:node.exe
 0000:ffeec000       .debug$S                   0000000180000000     node:node.exe
 0000:ffeec000       .debug$S                   0000000180000000     node:node.exe
 0000:ffeec000       .debug$S                   0000000180000000     node:node.exe
 0000:ffeec000       .debug$S                   0000000180000000     node:node.exe
 0000:ffeec000       .debug$S                   0000000180000000     node:node.exe
 0000:ffeec000       .debug$S                   0000000180000000     node:node.exe
 0000:ffeec000       .debug$S                   0000000180000000     node:node.exe
 0000:ffeec000       .debug$S                   0000000180000000     node:node.exe
 0000:ffeec000       .debug$S                   0000000180000000     node:node.exe
 0000:ffeec000       .debug$S                   0000000180000000     node:node.exe
 0000:ffeec000       .debug$S                   0000000180000000     node:node.exe
 0000:ffeec000       .debug$S                   0000000180000000     node:node.exe
 0000:ffeec000       .debug$S                   0000000180000000     node:node.exe
 0000:ffeec000       .debug$S                   0000000180000000     node:node.exe
 0000:ffeec000       .debug$S                   0000000180000000     node:node.exe
 0000:ffeec000       .debug$S                   0000000180000000     node:node.exe
 0000:ffeec000       .debug$S                   0000000180000000     node:node.exe
 0000:ffeec000       .debug$S                   0000000180000000     node:node.exe
 0000:ffeec000       .debug$S                   0000000180000000     node:node.exe
 0000:ffeec000       .debug$S                   0000000180000000     node:node.exe
 0000:ffeec000       .debug$S                   0000000180000000     node:node.exe
 0000:ffeec000       .debug$S                   0000000180000000     node:node.exe
 0000:ffeec000       .debug$S                   0000000180000000     node:node.exe
 0000:ffeec000       .debug$S                   0000000180000000     node:node.exe
 0000:ffeec000       .debug$S                   0000000180000000     node:node.exe
 0000:ffeec000       .debug$S                   0000000180000000     node:node.exe
 0000:ffeec000       .debug$S                   0000000180000000     node:node.exe
 0000:ffeec000       .debug$S                   0000000180000000     node:node.exe
 0000:ffeec000       .debug$S                   0000000180000000     node:node.exe
 0000:ffeec000       .debug$S                   0000000180000000     node:node.exe
 0000:ffeec000       .debug$S                   0000000180000000     node:node.exe
 0000:ffeec000       .debug$S                   0000000180000000     node:node.exe
 0000:ffeec000       .debug$S                   0000000180000000     node:node.exe
 0000:ffeec000       .debug$S                   0000000180000000     node:node.exe
 0000:ffeec000       .debug$S                   0000000180000000     node:node.exe
 0000:ffeec000       .debug$S                   0000000180000000     node:node.exe
 0000:ffeec000       .debug$S                   0000000180000000     kernel32:KERNEL32.dll
 0000:ffeec000       .debug$S                   0000000180000000     kernel32:KERNEL32.dll
 0000:ffeec000       .debug$S                   0000000180000000     kernel32:KERNEL32.dll
 0000:ffeec000       .debug$S                   0000000180000000     kernel32:KERNEL32.dll
 0000:ffeec000       .debug$S                   0000000180000000     kernel32:KERNEL32.dll
 0000:ffeec000       .debug$S                   0000000180000000     kernel32:KERNEL32.dll
 0000:ffeec000       .debug$S                   0000000180000000     kernel32:KERNEL32.dll
 0000:ffeec000       .debug$S                   0000000180000000     kernel32:KERNEL32.dll
 0000:ffeec000       .debug$S                   0000000180000000     kernel32:KERNEL32.dll
 0000:ffeec000       .debug$S                   0000000180000000     kernel32:KERNEL32.dll
 0000:ffeec000       .debug$S                   0000000180000000     kernel32:KERNEL32.dll
 0000:ffeec000       .debug$S                   0000000180000000     kernel32:KERNEL32.dll
 0000:ffeec000       .debug$S                   0000000180000000     kernel32:KERNEL32.dll
 0000:ffeec000       .debug$S                   0000000180000000     kernel32:KERNEL32.dll
 0000:ffeec000       .debug$S                   0000000180000000     kernel32:KERNEL32.dll
 0000:ffeec000       .debug$S                   0000000180000000     kernel32:KERNEL32.dll
 0000:ffeec000       .debug$S                   0000000180000000     kernel32:KERNEL32.dll
 0000:ffeec000       .debug$S                   0000000180000000     kernel32:KERNEL32.dll
 0000:ffeec000       .debug$S                   0000000180000000     kernel32:KERNEL32.dll
 0000:ffeec000       .debug$S                   0000000180000000     kernel32:KERNEL32.dll
 0000:ffeec000       .debug$S                   0000000180000000     kernel32:KERNEL32.dll
 0000:ffeec000       .debug$S                   0000000180000000     kernel32:KERNEL32.dll
 0000:ffeec000       .debug$S                   0000000180000000     kernel32:KERNEL32.dll
 0000:ffeec000       .debug$S                   0000000180000000     kernel32:KERNEL32.dll
 0000:ffeec000       .debug$S                   0000000180000000     kernel32:KERNEL32.dll
 0000:ffeec000       .debug$S                   0000000180000000     kernel32:KERNEL32.dll
 0000:ffeec000       .debug$S                   0000000180000000     kernel32:KERNEL32.dll
 0000:ffeec000       .debug$S                   0000000180000000     kernel32:KERNEL32.dll
 0000:ffeec000       .debug$S                   0000000180000000     kernel32:KERNEL32.dll
 0000:ffeec000       .debug$S                   0000000180000000     kernel32:KERNEL32.dll
 0001:00000000       ??__Epiecewise_construct@std@@YAXXZ 0000000180001000 f   * CIL library *:* CIL module *
 0001:00000010       ??__Eallocator_arg@std@@YAXXZ 0000000180001010 f   * CIL library *:* CIL module *
 0001:00000020       ??__E?object_template@Iconv@?A0xe8528b84@@2V?$Persistent@VObjectTemplate@v8@@V?$NonCopyablePersistentTraits@VObjectTemplate@v8@@@2@@Nan@@A@@YAXXZ 0000000180001020 f   * CIL library *:* CIL module *
 0001:00000040       ?FunctionCallbackWrapper@imp@Nan@@YAXAEBV?$FunctionCallbackInfo@VValue@v8@@@v8@@@Z 0000000180001040 f   * CIL library *:* CIL module *
 0001:00000a60       _register_libiconv         0000000180001a60 f   * CIL library *:* CIL module *
 0001:00000ae0       ascii_mbtowc               0000000180001ae0 f   * CIL library *:* CIL module *
 0001:00000b00       ascii_wctomb               0000000180001b00 f   * CIL library *:* CIL module *
 0001:00000b20       utf8_mbtowc                0000000180001b20 f   * CIL library *:* CIL module *
 0001:00000e10       utf8_wctomb                0000000180001e10 f   * CIL library *:* CIL module *
 0001:00000f1c       $LN24                      0000000180001f1c     * CIL library *:* CIL module *
 0001:00000f40       ucs2_mbtowc                0000000180001f40 f   * CIL library *:* CIL module *
 0001:00000fe0       ucs2_wctomb                0000000180001fe0 f   * CIL library *:* CIL module *
 0001:00001030       ucs2be_mbtowc              0000000180002030 f   * CIL library *:* CIL module *
 0001:00001060       ucs2be_wctomb              0000000180002060 f   * CIL library *:* CIL module *
 0001:000010a0       ucs2le_mbtowc              00000001800020a0 f   * CIL library *:* CIL module *
 0001:000010d0       ucs2le_wctomb              00000001800020d0 f   * CIL library *:* CIL module *
 0001:00001110       ucs4_mbtowc                0000000180002110 f   * CIL library *:* CIL module *
 0001:000011e0       ucs4_wctomb                00000001800021e0 f   * CIL library *:* CIL module *
 0001:00001220       ucs4be_mbtowc              0000000180002220 f   * CIL library *:* CIL module *
 0001:00001260       ucs4be_wctomb              0000000180002260 f   * CIL library *:* CIL module *
 0001:00001290       ucs4le_mbtowc              0000000180002290 f   * CIL library *:* CIL module *
 0001:000012d0       ucs4le_wctomb              00000001800022d0 f   * CIL library *:* CIL module *
 0001:00001300       utf16_mbtowc               0000000180002300 f   * CIL library *:* CIL module *
 0001:00001420       utf16_wctomb               0000000180002420 f   * CIL library *:* CIL module *
 0001:000014f0       utf16be_mbtowc             00000001800024f0 f   * CIL library *:* CIL module *
 0001:00001570       utf16be_wctomb             0000000180002570 f   * CIL library *:* CIL module *
 0001:00001600       utf16le_mbtowc             0000000180002600 f   * CIL library *:* CIL module *
 0001:00001680       utf16le_wctomb             0000000180002680 f   * CIL library *:* CIL module *
 0001:00001700       utf32_mbtowc               0000000180002700 f   * CIL library *:* CIL module *
 0001:000017e0       utf32_wctomb               00000001800027e0 f   * CIL library *:* CIL module *
 0001:00001850       utf32be_mbtowc             0000000180002850 f   * CIL library *:* CIL module *
 0001:000018a0       utf32be_wctomb             00000001800028a0 f   * CIL library *:* CIL module *
 0001:000018f0       utf32le_mbtowc             00000001800028f0 f   * CIL library *:* CIL module *
 0001:00001940       utf32le_wctomb             0000000180002940 f   * CIL library *:* CIL module *
 0001:00001990       utf7_mbtowc                0000000180002990 f   * CIL library *:* CIL module *
 0001:00001c30       utf7_wctomb                0000000180002c30 f   * CIL library *:* CIL module *
 0001:00001f30       utf7_reset                 0000000180002f30 f   * CIL library *:* CIL module *
 0001:00001ff0       ucs2internal_mbtowc        0000000180002ff0 f   * CIL library *:* CIL module *
 0001:00002030       ucs2internal_wctomb        0000000180003030 f   * CIL library *:* CIL module *
 0001:00002070       ucs2swapped_mbtowc         0000000180003070 f   * CIL library *:* CIL module *
 0001:000020b0       ucs2swapped_wctomb         00000001800030b0 f   * CIL library *:* CIL module *
 0001:000020f0       ucs4internal_mbtowc        00000001800030f0 f   * CIL library *:* CIL module *
 0001:00002110       ucs4internal_wctomb        0000000180003110 f   * CIL library *:* CIL module *
 0001:00002130       ucs4swapped_mbtowc         0000000180003130 f   * CIL library *:* CIL module *
 0001:00002170       ucs4swapped_wctomb         0000000180003170 f   * CIL library *:* CIL module *
 0001:000021b0       c99_mbtowc                 00000001800031b0 f   * CIL library *:* CIL module *
 0001:00002350       c99_wctomb                 0000000180003350 f   * CIL library *:* CIL module *
 0001:000023d0       java_mbtowc                00000001800033d0 f   * CIL library *:* CIL module *
 0001:00002570       java_wctomb                0000000180003570 f   * CIL library *:* CIL module *
 0001:00002720       iso8859_1_mbtowc           0000000180003720 f   * CIL library *:* CIL module *
 0001:00002730       iso8859_1_wctomb           0000000180003730 f   * CIL library *:* CIL module *
 0001:00002750       iso8859_2_mbtowc           0000000180003750 f   * CIL library *:* CIL module *
 0001:00002780       iso8859_2_wctomb           0000000180003780 f   * CIL library *:* CIL module *
 0001:000027f0       iso8859_3_mbtowc           00000001800037f0 f   * CIL library *:* CIL module *
 0001:00002830       iso8859_3_wctomb           0000000180003830 f   * CIL library *:* CIL module *
 0001:000028c0       iso8859_4_mbtowc           00000001800038c0 f   * CIL library *:* CIL module *
 0001:000028f0       iso8859_4_wctomb           00000001800038f0 f   * CIL library *:* CIL module *
 0001:00002960       iso8859_5_mbtowc           0000000180003960 f   * CIL library *:* CIL module *
 0001:00002990       iso8859_5_wctomb           0000000180003990 f   * CIL library *:* CIL module *
 0001:00002a00       iso8859_6_mbtowc           0000000180003a00 f   * CIL library *:* CIL module *
 0001:00002a40       iso8859_6_wctomb           0000000180003a40 f   * CIL library *:* CIL module *
 0001:00002ab0       iso8859_7_mbtowc           0000000180003ab0 f   * CIL library *:* CIL module *
 0001:00002af0       iso8859_7_wctomb           0000000180003af0 f   * CIL library *:* CIL module *
 0001:00002ba0       iso8859_8_mbtowc           0000000180003ba0 f   * CIL library *:* CIL module *
 0001:00002be0       iso8859_8_wctomb           0000000180003be0 f   * CIL library *:* CIL module *
 0001:00002c70       iso8859_9_mbtowc           0000000180003c70 f   * CIL library *:* CIL module *
 0001:00002ca0       iso8859_9_wctomb           0000000180003ca0 f   * CIL library *:* CIL module *
 0001:00002d10       iso8859_10_mbtowc          0000000180003d10 f   * CIL library *:* CIL module *
 0001:00002d40       iso8859_10_wctomb          0000000180003d40 f   * CIL library *:* CIL module *
 0001:00002d90       iso8859_11_mbtowc          0000000180003d90 f   * CIL library *:* CIL module *
 0001:00002dd0       iso8859_11_wctomb          0000000180003dd0 f   * CIL library *:* CIL module *
 0001:00002e10       iso8859_13_mbtowc          0000000180003e10 f   * CIL library *:* CIL module *
 0001:00002e40       iso8859_13_wctomb          0000000180003e40 f   * CIL library *:* CIL module *
 0001:00002eb0       iso8859_14_mbtowc          0000000180003eb0 f   * CIL library *:* CIL module *
 0001:00002ee0       iso8859_14_wctomb          0000000180003ee0 f   * CIL library *:* CIL module *
 0001:00002fc0       iso8859_15_mbtowc          0000000180003fc0 f   * CIL library *:* CIL module *
 0001:00002ff0       iso8859_15_wctomb          0000000180003ff0 f   * CIL library *:* CIL module *
 0001:00003070       iso8859_16_mbtowc          0000000180004070 f   * CIL library *:* CIL module *
 0001:000030a0       iso8859_16_wctomb          00000001800040a0 f   * CIL library *:* CIL module *
 0001:00003140       koi8_r_mbtowc              0000000180004140 f   * CIL library *:* CIL module *
 0001:00003170       koi8_r_wctomb              0000000180004170 f   * CIL library *:* CIL module *
 0001:00003250       koi8_u_mbtowc              0000000180004250 f   * CIL library *:* CIL module *
 0001:00003280       koi8_u_wctomb              0000000180004280 f   * CIL library *:* CIL module *
 0001:00003360       koi8_ru_mbtowc             0000000180004360 f   * CIL library *:* CIL module *
 0001:00003390       koi8_ru_wctomb             0000000180004390 f   * CIL library *:* CIL module *
 0001:00003470       cp1250_mbtowc              0000000180004470 f   * CIL library *:* CIL module *
 0001:000034b0       cp1250_wctomb              00000001800044b0 f   * CIL library *:* CIL module *
 0001:00003560       cp1251_mbtowc              0000000180004560 f   * CIL library *:* CIL module *
 0001:000035a0       cp1251_wctomb              00000001800045a0 f   * CIL library *:* CIL module *
 0001:00003660       cp1252_mbtowc              0000000180004660 f   * CIL library *:* CIL module *
 0001:000036b0       cp1252_wctomb              00000001800046b0 f   * CIL library *:* CIL module *
 0001:00003770       cp1253_mbtowc              0000000180004770 f   * CIL library *:* CIL module *
 0001:000037b0       cp1253_wctomb              00000001800047b0 f   * CIL library *:* CIL module *
 0001:00003870       cp1254_mbtowc              0000000180004870 f   * CIL library *:* CIL module *
 0001:00003900       cp1254_wctomb              0000000180004900 f   * CIL library *:* CIL module *
 0001:000039f0       normal_flushwc             00000001800049f0 f   * CIL library *:* CIL module *
 0001:00003a10       cp1255_mbtowc              0000000180004a10 f   * CIL library *:* CIL module *
 0001:00003c20       $LN42                      0000000180004c20     * CIL library *:* CIL module *
 0001:00003c60       cp1255_wctomb              0000000180004c60 f   * CIL library *:* CIL module *
 0001:00003e70       cp1256_mbtowc              0000000180004e70 f   * CIL library *:* CIL module *
 0001:00003ea0       cp1256_wctomb              0000000180004ea0 f   * CIL library *:* CIL module *
 0001:00003f90       cp1257_mbtowc              0000000180004f90 f   * CIL library *:* CIL module *
 0001:00003fd0       cp1257_wctomb              0000000180004fd0 f   * CIL library *:* CIL module *
 0001:00004080       cp1258_mbtowc              0000000180005080 f   * CIL library *:* CIL module *
 0001:00004250       cp1258_wctomb              0000000180005250 f   * CIL library *:* CIL module *
 0001:00004470       cp850_mbtowc               0000000180005470 f   * CIL library *:* CIL module *
 0001:000044a0       cp850_wctomb               00000001800054a0 f   * CIL library *:* CIL module *
 0001:00004550       cp862_mbtowc               0000000180005550 f   * CIL library *:* CIL module *
 0001:00004580       cp862_wctomb               0000000180005580 f   * CIL library *:* CIL module *
 0001:000046c0       cp866_mbtowc               00000001800056c0 f   * CIL library *:* CIL module *
 0001:00004710       cp866_wctomb               0000000180005710 f   * CIL library *:* CIL module *
 0001:000047e0       cp1131_mbtowc              00000001800057e0 f   * CIL library *:* CIL module *
 0001:00004810       cp1131_wctomb              0000000180005810 f   * CIL library *:* CIL module *
 0001:000048c0       mac_roman_mbtowc           00000001800058c0 f   * CIL library *:* CIL module *
 0001:00004900       mac_roman_wctomb           0000000180005900 f   * CIL library *:* CIL module *
 0001:00004a50       mac_centraleurope_mbtowc   0000000180005a50 f   * CIL library *:* CIL module *
 0001:00004a80       mac_centraleurope_wctomb   0000000180005a80 f   * CIL library *:* CIL module *
 0001:00004b70       mac_iceland_mbtowc         0000000180005b70 f   * CIL library *:* CIL module *
 0001:00004bb0       mac_iceland_wctomb         0000000180005bb0 f   * CIL library *:* CIL module *
 0001:00004cd0       mac_croatian_mbtowc        0000000180005cd0 f   * CIL library *:* CIL module *
 0001:00004d10       mac_croatian_wctomb        0000000180005d10 f   * CIL library *:* CIL module *
 0001:00004e10       mac_romania_mbtowc         0000000180005e10 f   * CIL library *:* CIL module *
 0001:00004e50       mac_romania_wctomb         0000000180005e50 f   * CIL library *:* CIL module *
 0001:00004f50       mac_cyrillic_mbtowc        0000000180005f50 f   * CIL library *:* CIL module *
 0001:00004f80       mac_cyrillic_wctomb        0000000180005f80 f   * CIL library *:* CIL module *
 0001:00005080       mac_ukraine_mbtowc         0000000180006080 f   * CIL library *:* CIL module *
 0001:000050b0       mac_ukraine_wctomb         00000001800060b0 f   * CIL library *:* CIL module *
 0001:000051b0       mac_greek_mbtowc           00000001800061b0 f   * CIL library *:* CIL module *
 0001:000051f0       mac_greek_wctomb           00000001800061f0 f   * CIL library *:* CIL module *
 0001:000052d0       mac_turkish_mbtowc         00000001800062d0 f   * CIL library *:* CIL module *
 0001:00005310       mac_turkish_wctomb         0000000180006310 f   * CIL library *:* CIL module *
 0001:00005430       mac_hebrew_mbtowc          0000000180006430 f   * CIL library *:* CIL module *
 0001:00005470       mac_hebrew_wctomb          0000000180006470 f   * CIL library *:* CIL module *
 0001:00005540       mac_arabic_mbtowc          0000000180006540 f   * CIL library *:* CIL module *
 0001:00005580       mac_arabic_wctomb          0000000180006580 f   * CIL library *:* CIL module *
 0001:00005600       mac_thai_mbtowc            0000000180006600 f   * CIL library *:* CIL module *
 0001:00005640       mac_thai_wctomb            0000000180006640 f   * CIL library *:* CIL module *
 0001:00005710       hp_roman8_mbtowc           0000000180006710 f   * CIL library *:* CIL module *
 0001:00005750       hp_roman8_wctomb           0000000180006750 f   * CIL library *:* CIL module *
 0001:00005810       nextstep_mbtowc            0000000180006810 f   * CIL library *:* CIL module *
 0001:00005850       nextstep_wctomb            0000000180006850 f   * CIL library *:* CIL module *
 0001:00005930       armscii_8_mbtowc           0000000180006930 f   * CIL library *:* CIL module *
 0001:00005970       armscii_8_wctomb           0000000180006970 f   * CIL library *:* CIL module *
 0001:00005a20       georgian_academy_mbtowc    0000000180006a20 f   * CIL library *:* CIL module *
 0001:00005a60       georgian_academy_wctomb    0000000180006a60 f   * CIL library *:* CIL module *
 0001:00005b50       georgian_ps_mbtowc         0000000180006b50 f   * CIL library *:* CIL module *
 0001:00005bb0       georgian_ps_wctomb         0000000180006bb0 f   * CIL library *:* CIL module *
 0001:00005cb0       koi8_t_mbtowc              0000000180006cb0 f   * CIL library *:* CIL module *
 0001:00005cf0       koi8_t_wctomb              0000000180006cf0 f   * CIL library *:* CIL module *
 0001:00005db0       pt154_mbtowc               0000000180006db0 f   * CIL library *:* CIL module *
 0001:00005e00       pt154_wctomb               0000000180006e00 f   * CIL library *:* CIL module *
 0001:00005ea0       rk1048_mbtowc              0000000180006ea0 f   * CIL library *:* CIL module *
 0001:00005ee0       rk1048_wctomb              0000000180006ee0 f   * CIL library *:* CIL module *
 0001:00005fb0       mulelao_mbtowc             0000000180006fb0 f   * CIL library *:* CIL module *
 0001:00005ff0       mulelao_wctomb             0000000180006ff0 f   * CIL library *:* CIL module *
 0001:00006040       cp1133_mbtowc              0000000180007040 f   * CIL library *:* CIL module *
 0001:000060a0       cp1133_wctomb              00000001800070a0 f   * CIL library *:* CIL module *
 0001:00006110       tis620_mbtowc              0000000180007110 f   * CIL library *:* CIL module *
 0001:00006150       tis620_wctomb              0000000180007150 f   * CIL library *:* CIL module *
 0001:00006190       cp874_mbtowc               0000000180007190 f   * CIL library *:* CIL module *
 0001:000061d0       cp874_wctomb               00000001800071d0 f   * CIL library *:* CIL module *
 0001:00006260       viscii_mbtowc              0000000180007260 f   * CIL library *:* CIL module *
 0001:000062b0       viscii_wctomb              00000001800072b0 f   * CIL library *:* CIL module *
 0001:00006340       tcvn_mbtowc                0000000180007340 f   * CIL library *:* CIL module *
 0001:00006510       tcvn_wctomb                0000000180007510 f   * CIL library *:* CIL module *
 0001:000066a0       iso646_jp_mbtowc           00000001800076a0 f   * CIL library *:* CIL module *
 0001:000066e0       iso646_jp_wctomb           00000001800076e0 f   * CIL library *:* CIL module *
 0001:00006730       jisx0201_mbtowc            0000000180007730 f   * CIL library *:* CIL module *
 0001:00006790       jisx0201_wctomb            0000000180007790 f   * CIL library *:* CIL module *
 0001:000067f0       jisx0208_mbtowc            00000001800077f0 f   * CIL library *:* CIL module *
 0001:00006890       jisx0208_wctomb            0000000180007890 f   * CIL library *:* CIL module *
 0001:00006a90       jisx0212_mbtowc            0000000180007a90 f   * CIL library *:* CIL module *
 0001:00006ba0       jisx0212_wctomb            0000000180007ba0 f   * CIL library *:* CIL module *
 0001:00006d00       iso646_cn_mbtowc           0000000180007d00 f   * CIL library *:* CIL module *
 0001:00006d40       iso646_cn_wctomb           0000000180007d40 f   * CIL library *:* CIL module *
 0001:00006d90       gb2312_mbtowc              0000000180007d90 f   * CIL library *:* CIL module *
 0001:00006e30       gb2312_wctomb              0000000180007e30 f   * CIL library *:* CIL module *
 0001:00006ff0       isoir165ext_mbtowc         0000000180007ff0 f   * CIL library *:* CIL module *
 0001:00007090       isoir165ext_wctomb         0000000180008090 f   * CIL library *:* CIL module *
 0001:000072f0       isoir165_mbtowc            00000001800082f0 f   * CIL library *:* CIL module *
 0001:00007490       isoir165_wctomb            0000000180008490 f   * CIL library *:* CIL module *
 0001:00007590       gbkext_inv_wctomb          0000000180008590 f   * CIL library *:* CIL module *
 0001:000077a0       gbk_mbtowc                 00000001800087a0 f   * CIL library *:* CIL module *
 0001:00007a90       gbk_wctomb                 0000000180008a90 f   * CIL library *:* CIL module *
 0001:00007ca0       cns11643_1_mbtowc          0000000180008ca0 f   * CIL library *:* CIL module *
 0001:00007db0       cns11643_3_mbtowc          0000000180008db0 f   * CIL library *:* CIL module *
 0001:00007e50       cns11643_4_mbtowc          0000000180008e50 f   * CIL library *:* CIL module *
 0001:00007ef0       cns11643_inv_wctomb        0000000180008ef0 f   * CIL library *:* CIL module *
 0001:00008120       big5_mbtowc                0000000180009120 f   * CIL library *:* CIL module *
 0001:000081d0       big5_wctomb                00000001800091d0 f   * CIL library *:* CIL module *
 0001:000083c0       ksc5601_mbtowc             00000001800093c0 f   * CIL library *:* CIL module *
 0001:000084a0       ksc5601_wctomb             00000001800094a0 f   * CIL library *:* CIL module *
 0001:00008680       johab_hangul_mbtowc        0000000180009680 f   * CIL library *:* CIL module *
 0001:000087c0       johab_hangul_wctomb        00000001800097c0 f   * CIL library *:* CIL module *
 0001:000088a0       johab_hangul_decompose     00000001800098a0 f   * CIL library *:* CIL module *
 0001:000089a0       euc_jp_mbtowc              00000001800099a0 f   * CIL library *:* CIL module *
 0001:00008bb0       euc_jp_wctomb              0000000180009bb0 f   * CIL library *:* CIL module *
 0001:00008d90       sjis_mbtowc                0000000180009d90 f   * CIL library *:* CIL module *
 0001:00008f40       sjis_wctomb                0000000180009f40 f   * CIL library *:* CIL module *
 0001:000090f0       cp932ext_mbtowc            000000018000a0f0 f   * CIL library *:* CIL module *
 0001:000091f0       cp932ext_wctomb            000000018000a1f0 f   * CIL library *:* CIL module *
 0001:000094f0       cp932_mbtowc               000000018000a4f0 f   * CIL library *:* CIL module *
 0001:000096e0       cp932_wctomb               000000018000a6e0 f   * CIL library *:* CIL module *
 0001:000099d0       iso2022_jp_mbtowc          000000018000a9d0 f   * CIL library *:* CIL module *
 0001:00009c10       iso2022_jp_wctomb          000000018000ac10 f   * CIL library *:* CIL module *
 0001:00009da0       iso2022_jp_reset           000000018000ada0 f   * CIL library *:* CIL module *
 0001:00009da0       iso2022_jp1_reset          000000018000ada0 f   * CIL library *:* CIL module *
 0001:00009dd0       iso2022_jp1_mbtowc         000000018000add0 f   * CIL library *:* CIL module *
 0001:0000a0b0       iso2022_jp1_wctomb         000000018000b0b0 f   * CIL library *:* CIL module *
 0001:0000a2a0       iso2022_jp2_mbtowc         000000018000b2a0 f   * CIL library *:* CIL module *
 0001:0000a830       $LN178                     000000018000b830     * CIL library *:* CIL module *
 0001:0000a850       iso2022_jp2_wctomb         000000018000b850 f   * CIL library *:* CIL module *
 0001:0000af74       $LN150                     000000018000bf74     * CIL library *:* CIL module *
 0001:0000af98       $LN149                     000000018000bf98     * CIL library *:* CIL module *
 0001:0000b020       iso2022_jp2_reset          000000018000c020 f   * CIL library *:* CIL module *
 0001:0000b050       euc_cn_mbtowc              000000018000c050 f   * CIL library *:* CIL module *
 0001:0000b110       euc_cn_wctomb              000000018000c110 f   * CIL library *:* CIL module *
 0001:0000b1b0       ces_gbk_mbtowc             000000018000c1b0 f   * CIL library *:* CIL module *
 0001:0000b1f0       ces_gbk_wctomb             000000018000c1f0 f   * CIL library *:* CIL module *
 0001:0000b390       cp936_mbtowc               000000018000c390 f   * CIL library *:* CIL module *
 0001:0000b4f0       cp936_wctomb               000000018000c4f0 f   * CIL library *:* CIL module *
 0001:0000b610       gb18030ext_mbtowc          000000018000c610 f   * CIL library *:* CIL module *
 0001:0000b944       $LN75                      000000018000c944     * CIL library *:* CIL module *
 0001:0000b96c       $LN74                      000000018000c96c     * CIL library *:* CIL module *
 0001:0000b9d0       gb18030ext_wctomb          000000018000c9d0 f   * CIL library *:* CIL module *
 0001:0000bda0       gb18030uni_mbtowc          000000018000cda0 f   * CIL library *:* CIL module *
 0001:0000bed0       gb18030uni_wctomb          000000018000ced0 f   * CIL library *:* CIL module *
 0001:0000c000       gb18030_mbtowc             000000018000d000 f   * CIL library *:* CIL module *
 0001:0000c200       gb18030_wctomb             000000018000d200 f   * CIL library *:* CIL module *
 0001:0000c480       iso2022_cn_mbtowc          000000018000d480 f   * CIL library *:* CIL module *
 0001:0000c7b0       iso2022_cn_wctomb          000000018000d7b0 f   * CIL library *:* CIL module *
 0001:0000ca00       iso2022_kr_reset           000000018000da00 f   * CIL library *:* CIL module *
 0001:0000ca00       iso2022_cn_reset           000000018000da00 f   * CIL library *:* CIL module *
 0001:0000ca00       iso2022_cn_ext_reset       000000018000da00 f   * CIL library *:* CIL module *
 0001:0000ca20       iso2022_cn_ext_mbtowc      000000018000da20 f   * CIL library *:* CIL module *
 0001:0000d050       $LN174                     000000018000e050     * CIL library *:* CIL module *
 0001:0000d070       iso2022_cn_ext_wctomb      000000018000e070 f   * CIL library *:* CIL module *
 0001:0000d5c0       hz_mbtowc                  000000018000e5c0 f   * CIL library *:* CIL module *
 0001:0000d740       hz_wctomb                  000000018000e740 f   * CIL library *:* CIL module *
 0001:0000d840       hz_reset                   000000018000e840 f   * CIL library *:* CIL module *
 0001:0000d860       euc_tw_mbtowc              000000018000e860 f   * CIL library *:* CIL module *
 0001:0000db28       $LN64                      000000018000eb28     * CIL library *:* CIL module *
 0001:0000db70       euc_tw_wctomb              000000018000eb70 f   * CIL library *:* CIL module *
 0001:0000dc40       ces_big5_mbtowc            000000018000ec40 f   * CIL library *:* CIL module *
 0001:0000dc90       ces_big5_wctomb            000000018000ec90 f   * CIL library *:* CIL module *
 0001:0000dd20       cp950ext_wctomb            000000018000ed20 f   * CIL library *:* CIL module *
 0001:0000df30       cp950_mbtowc               000000018000ef30 f   * CIL library *:* CIL module *
 0001:0000e130       cp950_wctomb               000000018000f130 f   * CIL library *:* CIL module *
 0001:0000e490       hkscs1999_mbtowc           000000018000f490 f   * CIL library *:* CIL module *
 0001:0000e5e0       hkscs1999_wctomb           000000018000f5e0 f   * CIL library *:* CIL module *
 0001:0000e8d0       big5hkscs1999_mbtowc       000000018000f8d0 f   * CIL library *:* CIL module *
 0001:0000e9e0       big5hkscs1999_wctomb       000000018000f9e0 f   * CIL library *:* CIL module *
 0001:0000eb60       big5hkscs2001_reset        000000018000fb60 f   * CIL library *:* CIL module *
 0001:0000eb60       big5hkscs2004_reset        000000018000fb60 f   * CIL library *:* CIL module *
 0001:0000eb60       big5hkscs2008_reset        000000018000fb60 f   * CIL library *:* CIL module *
 0001:0000eb60       big5hkscs1999_reset        000000018000fb60 f   * CIL library *:* CIL module *
 0001:0000eb90       hkscs2001_mbtowc           000000018000fb90 f   * CIL library *:* CIL module *
 0001:0000ec20       hkscs2001_wctomb           000000018000fc20 f   * CIL library *:* CIL module *
 0001:0000f4c0       big5hkscs2001_mbtowc       00000001800104c0 f   * CIL library *:* CIL module *
 0001:0000f5e0       big5hkscs2001_wctomb       00000001800105e0 f   * CIL library *:* CIL module *
 0001:0000f780       hkscs2004_mbtowc           0000000180010780 f   * CIL library *:* CIL module *
 0001:0000f860       hkscs2004_wctomb           0000000180010860 f   * CIL library *:* CIL module *
 0001:00010150       big5hkscs2004_mbtowc       0000000180011150 f   * CIL library *:* CIL module *
 0001:00010280       big5hkscs2004_wctomb       0000000180011280 f   * CIL library *:* CIL module *
 0001:00010440       hkscs2008_mbtowc           0000000180011440 f   * CIL library *:* CIL module *
 0001:000104d0       hkscs2008_wctomb           00000001800114d0 f   * CIL library *:* CIL module *
 0001:00010bb0       big5hkscs2008_mbtowc       0000000180011bb0 f   * CIL library *:* CIL module *
 0001:00010d00       big5hkscs2008_wctomb       0000000180011d00 f   * CIL library *:* CIL module *
 0001:00010ee0       euc_kr_mbtowc              0000000180011ee0 f   * CIL library *:* CIL module *
 0001:00010f60       euc_kr_wctomb              0000000180011f60 f   * CIL library *:* CIL module *
 0001:00011000       uhc_1_mbtowc               0000000180012000 f   * CIL library *:* CIL module *
 0001:000110c0       uhc_1_wctomb               00000001800120c0 f   * CIL library *:* CIL module *
 0001:000111c0       uhc_2_mbtowc               00000001800121c0 f   * CIL library *:* CIL module *
 0001:00011280       uhc_2_wctomb               0000000180012280 f   * CIL library *:* CIL module *
 0001:00011380       cp949_mbtowc               0000000180012380 f   * CIL library *:* CIL module *
 0001:000114b0       cp949_wctomb               00000001800124b0 f   * CIL library *:* CIL module *
 0001:00011610       johab_mbtowc               0000000180012610 f   * CIL library *:* CIL module *
 0001:00011700       johab_wctomb               0000000180012700 f   * CIL library *:* CIL module *
 0001:000118a0       iso2022_kr_mbtowc          00000001800128a0 f   * CIL library *:* CIL module *
 0001:00011a20       iso2022_kr_wctomb          0000000180012a20 f   * CIL library *:* CIL module *
 0001:00011b50       cp856_mbtowc               0000000180012b50 f   * CIL library *:* CIL module *
 0001:00011b90       cp856_wctomb               0000000180012b90 f   * CIL library *:* CIL module *
 0001:00011c40       cp922_mbtowc               0000000180012c40 f   * CIL library *:* CIL module *
 0001:00011cc0       cp922_wctomb               0000000180012cc0 f   * CIL library *:* CIL module *
 0001:00011d30       cp1046_mbtowc              0000000180012d30 f   * CIL library *:* CIL module *
 0001:00011d70       cp1046_wctomb              0000000180012d70 f   * CIL library *:* CIL module *
 0001:00011e60       cp1124_mbtowc              0000000180012e60 f   * CIL library *:* CIL module *
 0001:00011e90       cp1124_wctomb              0000000180012e90 f   * CIL library *:* CIL module *
 0001:00011f10       cp1129_mbtowc              0000000180012f10 f   * CIL library *:* CIL module *
 0001:00011f40       cp1129_wctomb              0000000180012f40 f   * CIL library *:* CIL module *
 0001:00011fb0       cp1161_mbtowc              0000000180012fb0 f   * CIL library *:* CIL module *
 0001:00011ff0       cp1161_wctomb              0000000180012ff0 f   * CIL library *:* CIL module *
 0001:00012080       cp1162_mbtowc              0000000180013080 f   * CIL library *:* CIL module *
 0001:000120d0       cp1162_wctomb              00000001800130d0 f   * CIL library *:* CIL module *
 0001:00012170       cp1163_mbtowc              0000000180013170 f   * CIL library *:* CIL module *
 0001:000121b0       cp1163_wctomb              00000001800131b0 f   * CIL library *:* CIL module *
 0001:00012270       dec_kanji_mbtowc           0000000180013270 f   * CIL library *:* CIL module *
 0001:00012330       dec_kanji_wctomb           0000000180013330 f   * CIL library *:* CIL module *
 0001:000123d0       dec_hanyu_mbtowc           00000001800133d0 f   * CIL library *:* CIL module *
 0001:00012510       dec_hanyu_wctomb           0000000180013510 f   * CIL library *:* CIL module *
 0001:00012620       cp437_mbtowc               0000000180013620 f   * CIL library *:* CIL module *
 0001:00012650       cp437_wctomb               0000000180013650 f   * CIL library *:* CIL module *
 0001:00012770       cp737_mbtowc               0000000180013770 f   * CIL library *:* CIL module *
 0001:000127a0       cp737_wctomb               00000001800137a0 f   * CIL library *:* CIL module *
 0001:00012880       cp775_mbtowc               0000000180013880 f   * CIL library *:* CIL module *
 0001:000128b0       cp775_wctomb               00000001800138b0 f   * CIL library *:* CIL module *
 0001:00012960       cp852_mbtowc               0000000180013960 f   * CIL library *:* CIL module *
 0001:00012990       cp852_wctomb               0000000180013990 f   * CIL library *:* CIL module *
 0001:00012a20       cp853_mbtowc               0000000180013a20 f   * CIL library *:* CIL module *
 0001:00012a60       cp853_wctomb               0000000180013a60 f   * CIL library *:* CIL module *
 0001:00012b30       cp855_mbtowc               0000000180013b30 f   * CIL library *:* CIL module *
 0001:00012b60       cp855_wctomb               0000000180013b60 f   * CIL library *:* CIL module *
 0001:00012c10       cp857_mbtowc               0000000180013c10 f   * CIL library *:* CIL module *
 0001:00012c50       cp857_wctomb               0000000180013c50 f   * CIL library *:* CIL module *
 0001:00012ce0       cp858_mbtowc               0000000180013ce0 f   * CIL library *:* CIL module *
 0001:00012d20       cp858_wctomb               0000000180013d20 f   * CIL library *:* CIL module *
 0001:00012dd0       cp860_mbtowc               0000000180013dd0 f   * CIL library *:* CIL module *
 0001:00012e00       cp860_wctomb               0000000180013e00 f   * CIL library *:* CIL module *
 0001:00012f00       cp861_mbtowc               0000000180013f00 f   * CIL library *:* CIL module *
 0001:00012f30       cp861_wctomb               0000000180013f30 f   * CIL library *:* CIL module *
 0001:00013050       cp863_mbtowc               0000000180014050 f   * CIL library *:* CIL module *
 0001:00013080       cp863_wctomb               0000000180014080 f   * CIL library *:* CIL module *
 0001:000131a0       cp864_mbtowc               00000001800141a0 f   * CIL library *:* CIL module *
 0001:00013210       cp864_wctomb               0000000180014210 f   * CIL library *:* CIL module *
 0001:00013370       cp865_mbtowc               0000000180014370 f   * CIL library *:* CIL module *
 0001:000133a0       cp865_wctomb               00000001800143a0 f   * CIL library *:* CIL module *
 0001:000134c0       cp869_mbtowc               00000001800144c0 f   * CIL library *:* CIL module *
 0001:00013500       cp869_wctomb               0000000180014500 f   * CIL library *:* CIL module *
 0001:000135c0       cp1125_mbtowc              00000001800145c0 f   * CIL library *:* CIL module *
 0001:00013610       cp1125_wctomb              0000000180014610 f   * CIL library *:* CIL module *
 0001:000136d0       jisx0213_to_ucs4           00000001800146d0 f   * CIL library *:* CIL module *
 0001:00013780       ucs4_to_jisx0213           0000000180014780 f   * CIL library *:* CIL module *
 0001:00013850       euc_jisx0213_mbtowc        0000000180014850 f   * CIL library *:* CIL module *
 0001:00013980       euc_jisx0213_wctomb        0000000180014980 f   * CIL library *:* CIL module *
 0001:00013b60       shift_jisx0213_reset       0000000180014b60 f   * CIL library *:* CIL module *
 0001:00013b60       euc_jisx0213_reset         0000000180014b60 f   * CIL library *:* CIL module *
 0001:00013b90       shift_jisx0213_mbtowc      0000000180014b90 f   * CIL library *:* CIL module *
 0001:00013d00       shift_jisx0213_wctomb      0000000180014d00 f   * CIL library *:* CIL module *
 0001:00013f50       iso2022_jp3_mbtowc         0000000180014f50 f   * CIL library *:* CIL module *
 0001:00014330       $LN113                     0000000180015330     * CIL library *:* CIL module *
 0001:00014350       iso2022_jp3_flushwc        0000000180015350 f   * CIL library *:* CIL module *
 0001:00014380       iso2022_jp3_wctomb         0000000180015380 f   * CIL library *:* CIL module *
 0001:00014790       iso2022_jp3_reset          0000000180015790 f   * CIL library *:* CIL module *
 0001:00014830       big5_2003_mbtowc           0000000180015830 f   * CIL library *:* CIL module *
 0001:00014ac0       big5_2003_wctomb           0000000180015ac0 f   * CIL library *:* CIL module *
 0001:000152a0       $LN155                     00000001800162a0     * CIL library *:* CIL module *
 0001:000152fc       $LN154                     00000001800162fc     * CIL library *:* CIL module *
 0001:00015400       tds565_mbtowc              0000000180016400 f   * CIL library *:* CIL module *
 0001:00015440       tds565_wctomb              0000000180016440 f   * CIL library *:* CIL module *
 0001:000154d0       atarist_mbtowc             00000001800164d0 f   * CIL library *:* CIL module *
 0001:00015500       atarist_wctomb             0000000180016500 f   * CIL library *:* CIL module *
 0001:00015640       riscos1_mbtowc             0000000180016640 f   * CIL library *:* CIL module *
 0001:00015680       riscos1_wctomb             0000000180016680 f   * CIL library *:* CIL module *
 0001:00015780       unicode_transliterate      0000000180016780 f   * CIL library *:* CIL module *
 0001:00015ee0       uc_to_mb_write_replacement 0000000180016ee0 f   * CIL library *:* CIL module *
 0001:00015f30       mb_to_uc_write_replacement 0000000180016f30 f   * CIL library *:* CIL module *
 0001:000160d0       unicode_loop_convert       00000001800170d0 f   * CIL library *:* CIL module *
 0001:00016438       $LN53                      0000000180017438     * CIL library *:* CIL module *
 0001:00016444       $LN52                      0000000180017444     * CIL library *:* CIL module *
 0001:00016458       $LN51                      0000000180017458     * CIL library *:* CIL module *
 0001:00016464       $LN50                      0000000180017464     * CIL library *:* CIL module *
 0001:00016480       unicode_loop_reset         0000000180017480 f   * CIL library *:* CIL module *
 0001:000166b0       aliases_hash               00000001800176b0 f   * CIL library *:* CIL module *
 0001:00016788       $LN15                      0000000180017788     * CIL library *:* CIL module *
 0001:00016c30       load_exe_hook              0000000180017c30 f   * CIL library *:* CIL module *
 0001:00016f20       $$000000                   0000000180017f20     LIBCMT:amdsecgs.obj
 0001:00016f50       $$000000                   0000000180017f50     LIBCMT:memcpy.obj
 0001:00017040       MoveSmall                  0000000180018040     LIBCMT:memcpy.obj
 0001:00017c54       __DllMainCRTStartup        0000000180018c54 f   LIBCMT:dllcrt0.obj
 0001:00017d80       $$000000                   0000000180018d80     LIBCMT:strlen.obj
 0001:00018d1c       _initterm                  0000000180019d1c f   LIBCMT:crt0dat.obj
 0001:00018dd0       doexit                     0000000180019dd0 f   LIBCMT:crt0dat.obj
 0001:00019250       flsall                     000000018001a250 f   LIBCMT:fflush.obj
 0001:0001a354       ?getSystemCP@@YAHH@Z       000000018001b354 f   LIBCMT:mbctype.obj
 0001:0001a3d4       ?setSBCS@@YAXPEAUthreadmbcinfostruct@@@Z 000000018001b3d4 f   LIBCMT:mbctype.obj
 0001:0001a464       ?setSBUpLow@@YAXPEAUthreadmbcinfostruct@@@Z 000000018001b464 f   LIBCMT:mbctype.obj
 0001:0001b42c       parse_cmdline              000000018001c42c f   LIBCMT:stdargv.obj
 0001:0001c000       $$000000                   000000018001d000     LIBCMT:strcmp.obj
 0001:0001c538       _cftoe2_l                  000000018001d538 f   LIBCMT:cvt.obj
 0001:0001c82c       _cftof2_l                  000000018001d82c f   LIBCMT:cvt.obj
 0001:0001cdd0       $$000000                   000000018001ddd0     LIBCMT:memset.obj
 0001:0001cf75       MsetTab                    000000018001df75     LIBCMT:memset.obj
 0001:0001dff0       $$000000                   000000018001eff0     LIBCMT:jmpuwind.obj
 0001:0001e210       $$000000                   000000018001f210     LIBCMT:fpsr.obj
 0001:0001e7e4       ?__crtLCMapStringA_stat@@YAHPEAUlocaleinfo_struct@@PEB_WKPEBDHPEADHHH@Z 000000018001f7e4 f   LIBCMT:a_map.obj
 0001:0001eb68       ?__crtGetStringTypeA_stat@@YAHPEAUlocaleinfo_struct@@KPEBDHPEAGHH@Z 000000018001fb68 f   LIBCMT:a_str.obj
 0001:0001eed0       $$000000                   000000018001fed0     LIBCMT:memcmp.obj
 0001:0001efa8       ?x_ismbbtype_l@@YAHPEAUlocaleinfo_struct@@IHH@Z 000000018001ffa8 f   LIBCMT:ismbbyte.obj
 0001:0001f040       $$000000                   0000000180020040     LIBCMT:handlers.obj
 0001:0001fbd0       $$000000                   0000000180020bd0     LIBCMT:chkstk.obj
 0001:00022190       _onexit$fin$0              0000000180023190 f   LIBCMT:onexit.obj
 0001:000221a4       _CRT_INIT$fin$0            00000001800231a4 f   LIBCMT:dllcrt0.obj
 0001:000221ca       __DllMainCRTStartup$filt$0 00000001800231ca f   LIBCMT:dllcrt0.obj
 0001:00022213       _freefls$fin$1             0000000180023213 f   LIBCMT:tidtable.obj
 0001:00022213       _initptd$fin$1             0000000180023213 f   LIBCMT:tidtable.obj
 0001:0002222c       _freefls$fin$0             000000018002322c f   LIBCMT:tidtable.obj
 0001:0002222c       _initptd$fin$0             000000018002322c f   LIBCMT:tidtable.obj
 0001:00022245       doexit$fin$0               0000000180023245 f   LIBCMT:crt0dat.obj
 0001:00022269       flsall$fin$0               0000000180023269 f   LIBCMT:fflush.obj
 0001:00022291       flsall$fin$1               0000000180023291 f   LIBCMT:fflush.obj
 0001:000222aa       raise$fin$0                00000001800232aa f   LIBCMT:winsig.obj
 0001:000222c8       _setmbcp$fin$0             00000001800232c8 f   LIBCMT:mbctype.obj
 0001:000222c8       __updatetmbcinfo$fin$0     00000001800232c8 f   LIBCMT:mbctype.obj
 0001:000222e1       _locterm$fin$0             00000001800232e1 f   LIBCMT:wsetloca.obj
 0001:000222e1       __updatetlocinfo$fin$0     00000001800232e1 f   LIBCMT:wsetloca.obj
 0001:000222fa       _ioinit$fin$0              00000001800232fa f   LIBCMT:ioinit.obj
 0001:00022315       __DestructExceptionObject$filt$0 0000000180023315 f   LIBCMT:frame.obj
 0001:0002232d       ?fin$0@?0??_Type_info_dtor@type_info@@CAXPEAV1@@Z@4HA 000000018002332d f   LIBCMT:typname.obj
 0001:00022346       _mtinitlocknum$fin$0       0000000180023346 f   LIBCMT:mlock.obj
 0001:00022370       _IsNonwritableInCurrentImage$filt$0 0000000180023370 f   LIBCMT:pesect.obj
 0001:00022390       _fcloseall$fin$0           0000000180023390 f   LIBCMT:closeall.obj
 0001:000223a9       _commit$fin$0              00000001800233a9 f   LIBCMT:commit.obj
 0001:000223a9       _close$fin$0               00000001800233a9 f   LIBCMT:commit.obj
 0001:000223c0       _write$fin$0               00000001800233c0 f   LIBCMT:write.obj
 0001:000223d7       fclose$fin$0               00000001800233d7 f   LIBCMT:fclose.obj
 0001:000223ef       __lock_fhandle$fin$0       00000001800233ef f   LIBCMT:osfinfo.obj
 0001:00022410       ??__F?object_template@Iconv@?A0xe8528b84@@2V?$Persistent@VObjectTemplate@v8@@V?$NonCopyablePersistentTraits@VObjectTemplate@v8@@@2@@Nan@@A@@YAXXZ 0000000180023410 f   * CIL library *:* CIL module *
 0002:00000230       piecewise_construct$initializer$ 0000000180024230     * CIL library *:* CIL module *
 0002:00000238       ?object_template$initializer$@Iconv@?A0xe8528b84@@2P6AXXZEA 0000000180024238     * CIL library *:* CIL module *
 0002:00000240       allocator_arg$initializer$ 0000000180024240     * CIL library *:* CIL module *
 0002:00000260       pinit                      0000000180024260     LIBCMT:onexit.obj
 0002:00000268       pinit                      0000000180024268     LIBCMT:cpu_disp.obj
 0002:00000270       pinit                      0000000180024270     LIBCMT:_file.obj
 0002:00000278       pinit                      0000000180024278     LIBCMT:mbctype.obj
 0002:00000290       pterm                      0000000180024290     LIBCMT:wsetloca.obj
 0002:00000298       pterm                      0000000180024298     LIBCMT:initcon.obj
 0002:000002a0       pterm                      00000001800242a0     LIBCMT:_file.obj
 0002:00000310       _Win_errtab                0000000180024310     libcpmt:syserror.obj
 0002:000007c0       _Sys_errtab                00000001800247c0     libcpmt:syserror.obj
 0002:000016d0       ?ExceptionTemplate@?1??_CxxThrowException@@9@4UEHExceptionRecord@@B 00000001800256d0     LIBCMT:throw.obj
 0002:00001758       GS_ExceptionPointers       0000000180025758     LIBCMT:gs_report.obj
 0002:00001820       rterrs                     0000000180025820     LIBCMT:crt0msg.obj
 0002:000022f8       _mb_locale_names           00000001800262f8     LIBCMT:mbctype.obj
 0002:00002710       _first_127char             0000000180026710     LIBCMT:wsetloca.obj
 0002:00005ea0       __real@433fffffffffffff    0000000180029ea0     LIBCMT:fpsr.obj
 0002:00005ea8       __real@c33fffffffffffff    0000000180029ea8     LIBCMT:fpsr.obj
 0002:000067a0       tokenTable                 000000018002a7a0     LIBCMT:undname.obj
 0002:00006810       nameTable                  000000018002a810     LIBCMT:undname.obj
 0002:00006a90       rttiTable                  000000018002aa90     LIBCMT:undname.obj
 0002:00007280       rk1048_page00              000000018002b280     * CIL library *:* CIL module *
 0002:000072a0       translit_page05            000000018002b2a0     * CIL library *:* CIL module *
 0002:000072b0       koi8_u_page25              000000018002b2b0     * CIL library *:* CIL module *
 0002:00007358       jamo_initial_index_inverse 000000018002b358     * CIL library *:* CIL module *
 0002:00007370       mac_ukraine_page21         000000018002b370     * CIL library *:* CIL module *
 0002:00007388       hkscs2001_uni2indx_page227 000000018002b388     * CIL library *:* CIL module *
 0002:00007390       hkscs2001_uni2indx_page61  000000018002b390     * CIL library *:* CIL module *
 0002:000073a0       hkscs2001_uni2indx_page53  000000018002b3a0     * CIL library *:* CIL module *
 0002:000073f0       cp850_2uni                 000000018002b3f0     * CIL library *:* CIL module *
 0002:000074f0       hkscs2004_uni2indx_page23b 000000018002b4f0     * CIL library *:* CIL module *
 0002:000074f8       nextstep_pagefb            000000018002b4f8     * CIL library *:* CIL module *
 0002:00007500       hkscs2008_uni2indx_page66  000000018002b500     * CIL library *:* CIL module *
 0002:00007564       hkscs2001_uni2indx_page245 000000018002b564     * CIL library *:* CIL module *
 0002:00007568       hkscs2008_uni2indx_page258 000000018002b568     * CIL library *:* CIL module *
 0002:000075a0       cp850_page25               000000018002b5a0     * CIL library *:* CIL module *
 0002:00007648       pt154_page20               000000018002b648     * CIL library *:* CIL module *
 0002:00007660       jisx0213_to_ucs_combining  000000018002b660     * CIL library *:* CIL module *
 0002:000076c4       tcvn_comb_table            000000018002b6c4     * CIL library *:* CIL module *
 0002:000076d0       hkscs2001_2uni_page8c      000000018002b6d0     * CIL library *:* CIL module *
 0002:000077c8       cp950ext_uni2indx_page58   000000018002b7c8     * CIL library *:* CIL module *
 0002:000077f8       cp866_page00               000000018002b7f8     * CIL library *:* CIL module *
 0002:00007810       atarist_page01             000000018002b810     * CIL library *:* CIL module *
 0002:00007878       hkscs2001_uni2indx_page256 000000018002b878     * CIL library *:* CIL module *
 0002:000078a0       cns11643_inv_uni2indx_page30 000000018002b8a0     * CIL library *:* CIL module *
 0002:00009490       cp932ext_2uni_page87       000000018002d490     * CIL library *:* CIL module *
 0002:00009548       hkscs1999_uni2indx_page04  000000018002d548     * CIL library *:* CIL module *
 0002:00009560       cp1253_2uni                000000018002d560     * CIL library *:* CIL module *
 0002:00009660       cp1254_page01              000000018002d660     * CIL library *:* CIL module *
 0002:000096e0       hkscs1999_2charset         000000018002d6e0     * CIL library *:* CIL module *
 0002:0000bb94       hkscs2008_uni2indx_page289 000000018002fb94     * CIL library *:* CIL module *
 0002:0000bb98       iso8859_8_page20           000000018002fb98     * CIL library *:* CIL module *
 0002:0000bba8       hkscs2004_uni2indx_page29e 000000018002fba8     * CIL library *:* CIL module *
 0002:0000bbd8       hkscs2001_uni2indx_page88  000000018002fbd8     * CIL library *:* CIL module *
 0002:0000bc00       ksc5601_uni2indx_page4e    000000018002fc00     * CIL library *:* CIL module *
 0002:0000d068       isoir165ext_uni2indx_pageff 0000000180031068     * CIL library *:* CIL module *
 0002:0000d080       cp1251_2uni                0000000180031080     * CIL library *:* CIL module *
 0002:0000d180       gbkext_inv_uni2indx_pagef9 0000000180031180     * CIL library *:* CIL module *
 0002:0000d1d0       cp874_2uni                 00000001800311d0     * CIL library *:* CIL module *
 0002:0000d2d0       hkscs2008_uni2indx_page79  00000001800312d0     * CIL library *:* CIL module *
 0002:0000d384       hkscs2001_uni2indx_page287 0000000180031384     * CIL library *:* CIL module *
 0002:0000d388       viet_comp_table            0000000180031388     * CIL library *:* CIL module *
 0002:0000d3b0       gb18030ext_2uni_pagefe     00000001800313b0     * CIL library *:* CIL module *
 0002:0000d530       cp862_page25               0000000180031530     * CIL library *:* CIL module *
 0002:0000d5d8       cp853_page02               00000001800315d8     * CIL library *:* CIL module *
 0002:0000d5e0       hkscs2001_uni2indx_page2a1 00000001800315e0     * CIL library *:* CIL module *
 0002:0000d650       cp936ext_2uni_pagea6       0000000180031650     * CIL library *:* CIL module *
 0002:0000d67c       big5_uni2indx_pagefa       000000018003167c     * CIL library *:* CIL module *
 0002:0000d680       cp1124_page00              0000000180031680     * CIL library *:* CIL module *
 0002:0000d690       mac_thai_2uni              0000000180031690     * CIL library *:* CIL module *
 0002:0000d790       xbase64_tab                0000000180031790     * CIL library *:* CIL module *
 0002:0000d7a0       hkscs2001_uni2indx_page57  00000001800317a0     * CIL library *:* CIL module *
 0002:0000d818       georgian_academy_page20    0000000180031818     * CIL library *:* CIL module *
 0002:0000d848       cp1131_page00              0000000180031848     * CIL library *:* CIL module *
 0002:0000d860       atarist_2uni               0000000180031860     * CIL library *:* CIL module *
 0002:0000d960       cp853_page01               0000000180031960     * CIL library *:* CIL module *
 0002:0000d9d8       hkscs2004_uni2indx_page290 00000001800319d8     * CIL library *:* CIL module *
 0002:0000d9f8       cp863_page23               00000001800319f8     * CIL library *:* CIL module *
 0002:0000da10       hkscs2004_uni2indx_page66  0000000180031a10     * CIL library *:* CIL module *
 0002:0000da70       koi8_r_page04              0000000180031a70     * CIL library *:* CIL module *
 0002:0000dac8       gbkext_inv_uni2indx_page02 0000000180031ac8     * CIL library *:* CIL module *
 0002:0000db00       isoir165ext_uni2indx_page94 0000000180031b00     * CIL library *:* CIL module *
 0002:0000dd40       jisx0212_uni2indx_page4e   0000000180031d40     * CIL library *:* CIL module *
 0002:0000f1b0       cns11643_1_2uni_page42     00000001800331b0     * CIL library *:* CIL module *
 0002:0000f1f4       hkscs2001_uni2indx_page271 00000001800331f4     * CIL library *:* CIL module *
 0002:0000f1f8       iso8859_13_page20          00000001800331f8     * CIL library *:* CIL module *
 0002:0000f200       cp1254_2uni_1              0000000180033200     * CIL library *:* CIL module *
 0002:0000f240       mac_croatian_2uni          0000000180033240     * CIL library *:* CIL module *
 0002:0000f340       jisx0208_2charset          0000000180033340     * CIL library *:* CIL module *
 0002:00012900       cp850_page00               0000000180036900     * CIL library *:* CIL module *
 0002:00012960       hkscs2004_uni2indx_page272 0000000180036960     * CIL library *:* CIL module *
 0002:000129e0       stringpool2_contents       00000001800369e0     * CIL library *:* CIL module *
 0002:00012c58       mac_roman_pagefb           0000000180036c58     * CIL library *:* CIL module *
 0002:00012c60       tcvn_page00                0000000180036c60     * CIL library *:* CIL module *
 0002:00012d78       hkscs2008_uni2indx_page52  0000000180036d78     * CIL library *:* CIL module *
 0002:00012d90       cp865_page25               0000000180036d90     * CIL library *:* CIL module *
 0002:00012e38       mac_roman_page02           0000000180036e38     * CIL library *:* CIL module *
 0002:00012e58       cp950ext_uni2indx_page60   0000000180036e58     * CIL library *:* CIL module *
 0002:00012e70       johab_hangul_page31        0000000180036e70     * CIL library *:* CIL module *
 0002:00012ed8       cp1257_page02              0000000180036ed8     * CIL library *:* CIL module *
 0002:00012ef8       hkscs2008_uni2indx_page26e 0000000180036ef8     * CIL library *:* CIL module *
 0002:00012f20       gb2312_uni2indx_page00     0000000180036f20     * CIL library *:* CIL module *
 0002:00013038       cp1163_page20              0000000180037038     * CIL library *:* CIL module *
 0002:00013040       mac_turkish_page22         0000000180037040     * CIL library *:* CIL module *
 0002:000130a8       cp1256_page20              00000001800370a8     * CIL library *:* CIL module *
 0002:000130e0       hkscs2001_uni2indx_page91  00000001800370e0     * CIL library *:* CIL module *
 0002:000131a0       hkscs1999_uni2indx_page200 00000001800371a0     * CIL library *:* CIL module *
 0002:00015620       euc_jisx0213_comp_table_data 0000000180039620     * CIL library *:* CIL module *
 0002:00015684       hkscs2004_uni2indx_page24b 0000000180039684     * CIL library *:* CIL module *
 0002:00015688       hkscs2008_uni2indx_page21d 0000000180039688     * CIL library *:* CIL module *
 0002:000156a0       koi8_r_page00              00000001800396a0     * CIL library *:* CIL module *
 0002:000156f8       hkscs2004_uni2indx_page270 00000001800396f8     * CIL library *:* CIL module *
 0002:00015730       jisx0212_2uni_page22       0000000180039730     * CIL library *:* CIL module *
 0002:000157d4       hkscs1999_uni2indx_pagef9  00000001800397d4     * CIL library *:* CIL module *
 0002:000157d8       cp936ext_page02            00000001800397d8     * CIL library *:* CIL module *
 0002:00015808       hkscs2008_uni2indx_page8b  0000000180039808     * CIL library *:* CIL module *
 0002:00015830       cp855_page25               0000000180039830     * CIL library *:* CIL module *
 0002:000158d8       hkscs2001_uni2indx_page26b 00000001800398d8     * CIL library *:* CIL module *
 0002:000158e0       mac_cyrillic_2uni          00000001800398e0     * CIL library *:* CIL module *
 0002:000159e0       nextstep_page01            00000001800399e0     * CIL library *:* CIL module *
 0002:00015a48       hkscs2004_uni2indx_page3b  0000000180039a48     * CIL library *:* CIL module *
 0002:00015a70       iso8859_3_page01           0000000180039a70     * CIL library *:* CIL module *
 0002:00015ae8       hkscs2008_uni2indx_page27b 0000000180039ae8     * CIL library *:* CIL module *
 0002:00015b08       cp1133_2uni_2              0000000180039b08     * CIL library *:* CIL module *
 0002:00015b28       mac_thai_page00            0000000180039b28     * CIL library *:* CIL module *
 0002:00015b48       jamo_final_index_inverse   0000000180039b48     * CIL library *:* CIL module *
 0002:00015b64       cp1258_comb_table          0000000180039b64     * CIL library *:* CIL module *
 0002:00015b70       cns11643_inv_uni2indx_page24 0000000180039b70     * CIL library *:* CIL module *
 0002:00015c10       mac_croatian_page00        0000000180039c10     * CIL library *:* CIL module *
 0002:00015d08       jamo_medial_index_inverse  0000000180039d08     * CIL library *:* CIL module *
 0002:00015d20       hkscs2001_uni2indx_page5a  0000000180039d20     * CIL library *:* CIL module *
 0002:00015e98       mac_greek_page22           0000000180039e98     * CIL library *:* CIL module *
 0002:00015eb8       hkscs2004_uni2indx_page227 0000000180039eb8     * CIL library *:* CIL module *
 0002:00015ee0       cp862_page00               0000000180039ee0     * CIL library *:* CIL module *
 0002:00015f40       mac_hebrew_page05          0000000180039f40     * CIL library *:* CIL module *
 0002:00015f80       cp1253_page03              0000000180039f80     * CIL library *:* CIL module *
 0002:00015fd0       cp1251_page20              0000000180039fd0     * CIL library *:* CIL module *
 0002:00016000       gbkext_inv_uni2indx_page4e 000000018003a000     * CIL library *:* CIL module *
 0002:00017470       cns11643_inv_uni2indx_page20 000000018003b470     * CIL library *:* CIL module *
 0002:00017520       uhc_2_2charset_main        000000018003b520     * CIL library *:* CIL module *
 0002:00017588       cp1250_page20              000000018003b588     * CIL library *:* CIL module *
 0002:000175b8       mac_cyrillic_page20        000000018003b5b8     * CIL library *:* CIL module *
 0002:000175d0       hkscs2004_uni2indx_page4c  000000018003b5d0     * CIL library *:* CIL module *
 0002:00017638       hkscs2001_uni2indx_page220 000000018003b638     * CIL library *:* CIL module *
 0002:00017658       hkscs2004_uni2indx_page7d  000000018003b658     * CIL library *:* CIL module *
 0002:00017680       cp1255_page05              000000018003b680     * CIL library *:* CIL module *
 0002:000176c8       tcvn_page03                000000018003b6c8     * CIL library *:* CIL module *
 0002:000176f0       cns11643_4b_2uni_upages    000000018003b6f0     * CIL library *:* CIL module *
 0002:00017ad0       mac_roman_page22           000000018003bad0     * CIL library *:* CIL module *
 0002:00017b38       mac_hebrew_pagefb          000000018003bb38     * CIL library *:* CIL module *
 0002:00017b70       isoir165ext_uni2indx_page1e 000000018003bb70     * CIL library *:* CIL module *
 0002:00017be0       gb2312_2charset            000000018003bbe0     * CIL library *:* CIL module *
 0002:0001b610       iso8859_8_page00           000000018003f610     * CIL library *:* CIL module *
 0002:0001b668       cp437_page03               000000018003f668     * CIL library *:* CIL module *
 0002:0001b6a0       tcvn_page1e                000000018003f6a0     * CIL library *:* CIL module *
 0002:0001b700       viscii_2uni_2              000000018003f700     * CIL library *:* CIL module *
 0002:0001b800       cp1129_page00              000000018003f800     * CIL library *:* CIL module *
 0002:0001b910       jamo_final_index           000000018003f910     * CIL library *:* CIL module *
 0002:0001b930       uhc_1_2uni_page81          000000018003f930     * CIL library *:* CIL module *
 0002:0001cf70       cp1250_page00              0000000180040f70     * CIL library *:* CIL module *
 0002:0001d050       cp1046_page06              0000000180041050     * CIL library *:* CIL module *
 0002:0001d0b8       hkscs2004_uni2indx_page25a 00000001800410b8     * CIL library *:* CIL module *
 0002:0001d0d0       uhc_1_2uni_main_page81     00000001800410d0     * CIL library *:* CIL module *
 0002:0001d150       mac_greek_2uni             0000000180041150     * CIL library *:* CIL module *
 0002:0001d250       cp922_page01               0000000180041250     * CIL library *:* CIL module *
 0002:0001d270       ksc5601_uni2indx_page30    0000000180041270     * CIL library *:* CIL module *
 0002:0001d368       cp932ext_uni2indx_page30   0000000180041368     * CIL library *:* CIL module *
 0002:0001d370       mac_centraleurope_2uni     0000000180041370     * CIL library *:* CIL module *
 0002:0001d470       cp861_page22               0000000180041470     * CIL library *:* CIL module *
 0002:0001d4c0       cp860_2uni                 00000001800414c0     * CIL library *:* CIL module *
 0002:0001d5c0       cp1258_2uni                00000001800415c0     * CIL library *:* CIL module *
 0002:0001d6c0       hkscs2001_uni2indx_page9f  00000001800416c0     * CIL library *:* CIL module *
 0002:0001d6f0       cp1258_page01              00000001800416f0     * CIL library *:* CIL module *
 0002:0001d758       cp855_page00               0000000180041758     * CIL library *:* CIL module *
 0002:0001d778       hkscs2001_uni2indx_page26d 0000000180041778     * CIL library *:* CIL module *
 0002:0001d798       hkscs2004_uni2indx_page2a3 0000000180041798     * CIL library *:* CIL module *
 0002:0001d7b0       cp857_page00               00000001800417b0     * CIL library *:* CIL module *
 0002:0001d810       jisx0208_2uni_page21       0000000180041810     * CIL library *:* CIL module *
 0002:0001dd78       iso8859_4_page02           0000000180041d78     * CIL library *:* CIL module *
 0002:0001dd98       koi8_ru_page23             0000000180041d98     * CIL library *:* CIL module *
 0002:0001dda0       koi8_r_2uni                0000000180041da0     * CIL library *:* CIL module *
 0002:0001dea0       iso8859_2_2uni             0000000180041ea0     * CIL library *:* CIL module *
 0002:0001df60       gb18030ext_page4d          0000000180041f60     * CIL library *:* CIL module *
 0002:0001df80       hkscs2001_uni2indx_page23c 0000000180041f80     * CIL library *:* CIL module *
 0002:0001dfa0       cp865_page22               0000000180041fa0     * CIL library *:* CIL module *
 0002:0001dff0       hkscs2004_uni2indx_page23e 0000000180041ff0     * CIL library *:* CIL module *
 0002:0001e0b0       gb18030ext_page4c          00000001800420b0     * CIL library *:* CIL module *
 0002:0001e120       cp864_page00_1             0000000180042120     * CIL library *:* CIL module *
 0002:0001e178       cp1254_page02              0000000180042178     * CIL library *:* CIL module *
 0002:0001e198       mac_iceland_page20         0000000180042198     * CIL library *:* CIL module *
 0002:0001e1d0       hkscs1999_2uni_pagec6      00000001800421d0     * CIL library *:* CIL module *
 0002:0001e580       cp932ext_uni2indx_page5b   0000000180042580     * CIL library *:* CIL module *
 0002:0001e638       hkscs2008_uni2indx_page92  0000000180042638     * CIL library *:* CIL module *
 0002:0001e640       iso8859_14_page00          0000000180042640     * CIL library *:* CIL module *
 0002:0001e6a0       cns11643_3_2uni_upages     00000001800426a0     * CIL library *:* CIL module *
 0002:0001e8c0       hkscs2004_uni2indx_page286 00000001800428c0     * CIL library *:* CIL module *
 0002:0001e8f0       georgian_ps_page00         00000001800428f0     * CIL library *:* CIL module *
 0002:0001e910       cp1124_2uni                0000000180042910     * CIL library *:* CIL module *
 0002:0001e9d0       cp936ext_pagefe            00000001800429d0     * CIL library *:* CIL module *
 0002:0001ea00       cns11643_4a_2uni_page21    0000000180042a00     * CIL library *:* CIL module *
 0002:000200c8       georgian_academy_page02    00000001800440c8     * CIL library *:* CIL module *
 0002:000200e8       cp864_page00               00000001800440e8     * CIL library *:* CIL module *
 0002:000200f0       cp857_2uni                 00000001800440f0     * CIL library *:* CIL module *
 0002:000201f0       hkscs2004_uni2indx_page36  00000001800441f0     * CIL library *:* CIL module *
 0002:000202d0       hkscs2004_uni2indx_page8a  00000001800442d0     * CIL library *:* CIL module *
 0002:00020310       iso8859_7_2uni             0000000180044310     * CIL library *:* CIL module *
 0002:000203d0       gb2312_uni2indx_page30     00000001800443d0     * CIL library *:* CIL module *
 0002:00020460       hkscs2008_uni2indx_page46  0000000180044460     * CIL library *:* CIL module *
 0002:00020490       isoir165ext_uni2indx_page7e 0000000180044490     * CIL library *:* CIL module *
 0002:000209c8       mac_centraleurope_page20   00000001800449c8     * CIL library *:* CIL module *
 0002:000209f8       cp437_page23               00000001800449f8     * CIL library *:* CIL module *
 0002:00020a10       translit_page21            0000000180044a10     * CIL library *:* CIL module *
 0002:00020bc0       cns11643_inv_uni2indx_pagefe 0000000180044bc0     * CIL library *:* CIL module *
 0002:00020c40       isoir165ext_uni2indx_page9e 0000000180044c40     * CIL library *:* CIL module *
 0002:00020ca8       cp869_page20               0000000180044ca8     * CIL library *:* CIL module *
 0002:00020cb8       hkscs2004_uni2indx_page232 0000000180044cb8     * CIL library *:* CIL module *
 0002:00020cd0       translit_page2f8           0000000180044cd0     * CIL library *:* CIL module *
 0002:00021110       isoir165ext_2uni_page2b    0000000180045110     * CIL library *:* CIL module *
 0002:000214c0       cp737_page25               00000001800454c0     * CIL library *:* CIL module *
 0002:00021568       mac_croatian_page21        0000000180045568     * CIL library *:* CIL module *
 0002:00021570       gbkext_inv_uni2indx_page32 0000000180045570     * CIL library *:* CIL module *
 0002:000215e8       mac_hebrew_page20          00000001800455e8     * CIL library *:* CIL module *
 0002:00021600       sysdep_aliases             0000000180045600     * CIL library *:* CIL module *
 0002:00021880       big5_2uni_pagea1           0000000180045880     * CIL library *:* CIL module *
 0002:00024858       cp1257_page20              0000000180048858     * CIL library *:* CIL module *
 0002:00024888       koi8_t_page21              0000000180048888     * CIL library *:* CIL module *
 0002:000248a0       cp1131_page04              00000001800488a0     * CIL library *:* CIL module *
 0002:00024938       hkscs2008_uni2indx_page90  0000000180048938     * CIL library *:* CIL module *
 0002:00024950       cns11643_inv_uni2indx_page00 0000000180048950     * CIL library *:* CIL module *
 0002:00024990       cp1255_decomp_table        0000000180048990     * CIL library *:* CIL module *
 0002:00024aa0       big5_2charset              0000000180048aa0     * CIL library *:* CIL module *
 0002:0002b5b0       ?asso_values@?1??aliases_hash@@9@9 000000018004f5b0     * CIL library *:* CIL module *
 0002:0002b6b0       iso8859_6_2uni             000000018004f6b0     * CIL library *:* CIL module *
 0002:0002b770       cp869_page25               000000018004f770     * CIL library *:* CIL module *
 0002:0002b818       nextstep_page20            000000018004f818     * CIL library *:* CIL module *
 0002:0002b850       hkscs2001_uni2indx_page25c 000000018004f850     * CIL library *:* CIL module *
 0002:0002b8a0       cp1258_page00              000000018004f8a0     * CIL library *:* CIL module *
 0002:0002b8f8       atarist_page23             000000018004f8f8     * CIL library *:* CIL module *
 0002:0002b910       koi8_ru_page04             000000018004f910     * CIL library *:* CIL module *
 0002:0002b9a8       hkscs2004_uni2indx_page254 000000018004f9a8     * CIL library *:* CIL module *
 0002:0002b9d0       translit_page0e            000000018004f9d0     * CIL library *:* CIL module *
 0002:0002ba30       cp932ext_uni2indx_page7d   000000018004fa30     * CIL library *:* CIL module *
 0002:0002bae0       gb18030uni_ranges          000000018004fae0     * CIL library *:* CIL module *
 0002:0002bc80       viscii_page00              000000018004fc80     * CIL library *:* CIL module *
 0002:0002bd78       cp865_page23               000000018004fd78     * CIL library *:* CIL module *
 0002:0002bd90       gb2312_2uni_page30         000000018004fd90     * CIL library *:* CIL module *
 0002:0002f270       gb18030ext_page2f          0000000180053270     * CIL library *:* CIL module *
 0002:0002f290       georgian_ps_page02         0000000180053290     * CIL library *:* CIL module *
 0002:0002f2b0       iso8859_5_2uni             00000001800532b0     * CIL library *:* CIL module *
 0002:0002f370       translit_page2f            0000000180053370     * CIL library *:* CIL module *
 0002:0002f520       ksc5601_uni2indx_pageac    0000000180053520     * CIL library *:* CIL module *
 0002:00030008       mac_cyrillic_page21        0000000180054008     * CIL library *:* CIL module *
 0002:00030020       isoir165ext_2uni_page7a    0000000180054020     * CIL library *:* CIL module *
 0002:000303d0       mac_centraleurope_page00   00000001800543d0     * CIL library *:* CIL module *
 0002:000304b0       cp1133_2uni_1              00000001800544b0     * CIL library *:* CIL module *
 0002:00030530       mac_iceland_2uni           0000000180054530     * CIL library *:* CIL module *
 0002:00030630       translit_page30            0000000180054630     * CIL library *:* CIL module *
 0002:00030820       cp860_page22               0000000180054820     * CIL library *:* CIL module *
 0002:00030870       cns11643_6_2uni_page21     0000000180054870     * CIL library *:* CIL module *
 0002:00033a58       mac_roman_page21           0000000180057a58     * CIL library *:* CIL module *
 0002:00033a60       cp1251_page04              0000000180057a60     * CIL library *:* CIL module *
 0002:00033af8       iso8859_7_page00           0000000180057af8     * CIL library *:* CIL module *
 0002:00033b18       cp1161_page00              0000000180057b18     * CIL library *:* CIL module *
 0002:00033b28       hkscs2008_uni2indx_page224 0000000180057b28     * CIL library *:* CIL module *
 0002:00033b60       cp932ext_2charset          0000000180057b60     * CIL library *:* CIL module *
 0002:00033ef8       cp936ext_page01            0000000180057ef8     * CIL library *:* CIL module *
 0002:00033f18       mac_greek_page20           0000000180057f18     * CIL library *:* CIL module *
 0002:00033f40       hkscs1999_uni2indx_page294 0000000180057f40     * CIL library *:* CIL module *
 0002:00033fc0       ksc5601_2uni_page21        0000000180057fc0     * CIL library *:* CIL module *
 0002:00034878       mac_thai_page20            0000000180058878     * CIL library *:* CIL module *
 0002:00034898       cp737_page00               0000000180058898     * CIL library *:* CIL module *
 0002:000348b0       gb2312_uni2indx_page20     00000001800588b0     * CIL library *:* CIL module *
 0002:00034a48       iso8859_15_page01          0000000180058a48     * CIL library *:* CIL module *
 0002:00034a78       cp1258_page03              0000000180058a78     * CIL library *:* CIL module *
 0002:00034aa0       cp932ext_uni2indx_page90   0000000180058aa0     * CIL library *:* CIL module *
 0002:00034e58       cp950ext_uni2indx_page88   0000000180058e58     * CIL library *:* CIL module *
 0002:00034e90       cp932ext_uni2indx_page5f   0000000180058e90     * CIL library *:* CIL module *
 0002:000355b8       hkscs2004_uni2indx_page21a 00000001800595b8     * CIL library *:* CIL module *
 0002:000355d8       mac_thai_pagef8            00000001800595d8     * CIL library *:* CIL module *
 0002:000355f8       mac_roman_page20           00000001800595f8     * CIL library *:* CIL module *
 0002:00035630       cp866_page25               0000000180059630     * CIL library *:* CIL module *
 0002:000356d8       mac_ukraine_page20         00000001800596d8     * CIL library *:* CIL module *
 0002:000356f0       koi8_u_page00              00000001800596f0     * CIL library *:* CIL module *
 0002:00035748       hkscs2008_uni2indx_page260 0000000180059748     * CIL library *:* CIL module *
 0002:00035758       hkscs2004_uni2indx_page28b 0000000180059758     * CIL library *:* CIL module *
 0002:00035788       rk1048_page21              0000000180059788     * CIL library *:* CIL module *
 0002:000357a0       cns11643_inv_2charset      00000001800597a0     * CIL library *:* CIL module *
 0002:0005e158       cp1253_page20              0000000180082158     * CIL library *:* CIL module *
 0002:0005e188       hkscs1999_uni2indx_page1e  0000000180082188     * CIL library *:* CIL module *
 0002:0005e1c0       cp853_2uni                 00000001800821c0     * CIL library *:* CIL module *
 0002:0005e2c0       jisx0213_from_ucs_level2_2indx 00000001800822c0     * CIL library *:* CIL module *
 0002:00060d20       gb18030_pua2charset        0000000180084d20     * CIL library *:* CIL module *
 0002:00060de0       cp932ext_uni2indx_pageff   0000000180084de0     * CIL library *:* CIL module *
 0002:00060e20       iso8859_13_2uni            0000000180084e20     * CIL library *:* CIL module *
 0002:00060ee0       cp856_page05               0000000180084ee0     * CIL library *:* CIL module *
 0002:00060f00       cp1256_2uni                0000000180084f00     * CIL library *:* CIL module *
 0002:00061000       translit_pagefe            0000000180085000     * CIL library *:* CIL module *
 0002:00061050       translit_page0f            0000000180085050     * CIL library *:* CIL module *
 0002:00061070       cp861_page25               0000000180085070     * CIL library *:* CIL module *
 0002:00061118       hkscs2008_uni2indx_page54  0000000180085118     * CIL library *:* CIL module *
 0002:00061130       mulelao_2uni               0000000180085130     * CIL library *:* CIL module *
 0002:000611f0       gb18030ext_page46          00000001800851f0     * CIL library *:* CIL module *
 0002:00061230       cp950ext_2uni_pagef9       0000000180085230     * CIL library *:* CIL module *
 0002:00061288       atarist_page05             0000000180085288     * CIL library *:* CIL module *
 0002:000612a8       hkscs2008_uni2indx_page62  00000001800852a8     * CIL library *:* CIL module *
 0002:000612e0       ksc5601_uni2indx_page00    00000001800852e0     * CIL library *:* CIL module *
 0002:000613f8       hkscs2001_uni2indx_page35  00000001800853f8     * CIL library *:* CIL module *
 0002:00061410       cns11643_2_2uni_page21     0000000180085410     * CIL library *:* CIL module *
 0002:00064fd8       hkscs2008_uni2indx_page49  0000000180088fd8     * CIL library *:* CIL module *
 0002:00064fe8       mac_romania_page20         0000000180088fe8     * CIL library *:* CIL module *
 0002:00065020       cp869_2uni                 0000000180089020     * CIL library *:* CIL module *
 0002:00065120       iso8859_14_2uni            0000000180089120     * CIL library *:* CIL module *
 0002:000651e0       hkscs2001_uni2indx_page85  00000001800891e0     * CIL library *:* CIL module *
 0002:00065228       hkscs2004_uni2indx_page242 0000000180089228     * CIL library *:* CIL module *
 0002:00065258       hkscs2004_uni2indx_page221 0000000180089258     * CIL library *:* CIL module *
 0002:00065290       gb18030ext_page2e          0000000180089290     * CIL library *:* CIL module *
 0002:00065330       mac_ukraine_page04         0000000180089330     * CIL library *:* CIL module *
 0002:000653c8       iso8859_14_page1e_1        00000001800893c8     * CIL library *:* CIL module *
 0002:000653d0       cp1131_2uni                00000001800893d0     * CIL library *:* CIL module *
 0002:000654d0       hp_roman8_2uni             00000001800894d0     * CIL library *:* CIL module *
 0002:00065590       gb18030ext_2uni_pagea9     0000000180089590     * CIL library *:* CIL module *
 0002:000655b0       gbkext_inv_uni2indx_page25 00000001800895b0     * CIL library *:* CIL module *
 0002:000655f8       translit_page20_3          00000001800895f8     * CIL library *:* CIL module *
 0002:00065608       koi8_r_page23              0000000180089608     * CIL library *:* CIL module *
 0002:00065610       cp865_2uni                 0000000180089610     * CIL library *:* CIL module *
 0002:00065710       mac_arabic_page00          0000000180089710     * CIL library *:* CIL module *
 0002:00065770       mac_roman_page01           0000000180089770     * CIL library *:* CIL module *
 0002:000657d8       atarist_page03             00000001800897d8     * CIL library *:* CIL module *
 0002:00065810       tds565_2uni                0000000180089810     * CIL library *:* CIL module *
 0002:00065890       cns11643_4b_2uni_page40    0000000180089890     * CIL library *:* CIL module *
 0002:00067ad0       hkscs2001_uni2indx_page42  000000018008bad0     * CIL library *:* CIL module *
 0002:00067b00       hkscs2008_uni2indx_page57  000000018008bb00     * CIL library *:* CIL module *
 0002:00067b68       hkscs2008_uni2indx_page88  000000018008bb68     * CIL library *:* CIL module *
 0002:00067b90       hkscs2004_uni2indx_page298 000000018008bb90     * CIL library *:* CIL module *
 0002:00067be8       hkscs2001_uni2indx_page214 000000018008bbe8     * CIL library *:* CIL module *
 0002:00067bf8       cp862_page03               000000018008bbf8     * CIL library *:* CIL module *
 0002:00067c30       cp855_2uni                 000000018008bc30     * CIL library *:* CIL module *
 0002:00067d30       hkscs2008_uni2indx_page40  000000018008bd30     * CIL library *:* CIL module *
 0002:00067d98       cp950ext_uni2indx_page92   000000018008bd98     * CIL library *:* CIL module *
 0002:00067dc8       hkscs2008_uni2indx_page9f  000000018008bdc8     * CIL library *:* CIL module *
 0002:00067e00       tds565_page00              000000018008be00     * CIL library *:* CIL module *
 0002:00067e40       cp856_2uni                 000000018008be40     * CIL library *:* CIL module *
 0002:00067f40       translit_pagefb            000000018008bf40     * CIL library *:* CIL module *
 0002:00067fe0       hkscs2008_uni2indx_page34  000000018008bfe0     * CIL library *:* CIL module *
 0002:00068020       gb18030ext_page43          000000018008c020     * CIL library *:* CIL module *
 0002:00068090       jisx0212_2uni_page26       000000018008c090     * CIL library *:* CIL module *
 0002:00068208       hkscs2001_uni2indx_page241 000000018008c208     * CIL library *:* CIL module *
 0002:00068220       translit_page02_1          000000018008c220     * CIL library *:* CIL module *
 0002:00068270       jisx0212_2uni_page30       000000018008c270     * CIL library *:* CIL module *
 0002:0006afc8       cp950ext_uni2indx_page7c   000000018008efc8     * CIL library *:* CIL module *
 0002:0006aff8       isoir165ext_uni2indx_page30 000000018008eff8     * CIL library *:* CIL module *
 0002:0006b008       cp874_page20               000000018008f008     * CIL library *:* CIL module *
 0002:0006b020       georgian_ps_2uni_1         000000018008f020     * CIL library *:* CIL module *
 0002:0006b060       iso8859_16_2uni            000000018008f060     * CIL library *:* CIL module *
 0002:0006b120       mac_romania_2uni           000000018008f120     * CIL library *:* CIL module *
 0002:0006b220       mac_iceland_page01         000000018008f220     * CIL library *:* CIL module *
 0002:0006b288       hkscs2004_uni2indx_page34  000000018008f288     * CIL library *:* CIL module *
 0002:0006b2a0       hkscs2001_uni2indx_page82  000000018008f2a0     * CIL library *:* CIL module *
 0002:0006b2e0       hkscs1999_uni2indx_pageff  000000018008f2e0     * CIL library *:* CIL module *
 0002:0006b320       ksc5601_2charset           000000018008f320     * CIL library *:* CIL module *
 0002:0006f368       riscos1_page20             0000000180093368     * CIL library *:* CIL module *
 0002:0006f398       hkscs2001_uni2indx_page8b  0000000180093398     * CIL library *:* CIL module *
 0002:0006f3c0       cp437_page00               00000001800933c0     * CIL library *:* CIL module *
 0002:0006f420       cp932ext_uni2indx_page88   0000000180093420     * CIL library *:* CIL module *
 0002:0006f5d8       iso8859_8_page05           00000001800935d8     * CIL library *:* CIL module *
 0002:0006f5f8       georgian_ps_page10         00000001800935f8     * CIL library *:* CIL module *
 0002:0006f620       ksc5601_2uni_page30        0000000180093620     * CIL library *:* CIL module *
 0002:00070880       uhc_2_2charset             0000000180094880     * CIL library *:* CIL module *
 0002:000714b8       mac_ukraine_page00         00000001800954b8     * CIL library *:* CIL module *
 0002:000714d8       hp_roman8_page01           00000001800954d8     * CIL library *:* CIL module *
 0002:00071510       gb18030ext_page49          0000000180095510     * CIL library *:* CIL module *
 0002:00071600       cp863_page22               0000000180095600     * CIL library *:* CIL module *
 0002:00071650       cns11643_6_2uni_upages     0000000180095650     * CIL library *:* CIL module *
 0002:00071980       iso8859_9_2uni             0000000180095980     * CIL library *:* CIL module *
 0002:000719e0       cp1133_page00              00000001800959e0     * CIL library *:* CIL module *
 0002:000719f0       cp1257_page00              00000001800959f0     * CIL library *:* CIL module *
 0002:00071ad0       isoir165ext_uni2indx_page00 0000000180095ad0     * CIL library *:* CIL module *
 0002:00071b50       riscos1_2uni               0000000180095b50     * CIL library *:* CIL module *
 0002:00071b90       koi8_ru_page25             0000000180095b90     * CIL library *:* CIL module *
 0002:00071c38       cp950ext_uni2indx_page78   0000000180095c38     * CIL library *:* CIL module *
 0002:00071c60       cp437_2uni                 0000000180095c60     * CIL library *:* CIL module *
 0002:00071d60       viet_comp_table_data       0000000180095d60     * CIL library *:* CIL module *
 0002:00072088       iso8859_3_page02           0000000180096088     * CIL library *:* CIL module *
 0002:00072090       hkscs2001_uni2indx_page289 0000000180096090     * CIL library *:* CIL module *
 0002:00072110       gb2312_uni2indx_pageff     0000000180096110     * CIL library *:* CIL module *
 0002:00072150       hkscs2001_uni2indx_page40  0000000180096150     * CIL library *:* CIL module *
 0002:00072170       translit_page24            0000000180096170     * CIL library *:* CIL module *
 0002:00072350       cp869_page03               0000000180096350     * CIL library *:* CIL module *
 0002:000723a0       hkscs2001_uni2indx_page8e  00000001800963a0     * CIL library *:* CIL module *
 0002:00072418       hkscs1999_uni2indx_page21  0000000180096418     * CIL library *:* CIL module *
 0002:00072458       iso8859_14_page01_0        0000000180096458     * CIL library *:* CIL module *
 0002:00072478       hkscs2004_uni2indx_page26e 0000000180096478     * CIL library *:* CIL module *
 0002:000724a0       hkscs2004_2uni_upages      00000001800964a0     * CIL library *:* CIL module *
 0002:000725d8       cp950ext_uni2indx_page25   00000001800965d8     * CIL library *:* CIL module *
 0002:00072600       hkscs2001_uni2indx_page97  0000000180096600     * CIL library *:* CIL module *
 0002:000726c0       uhc_2_2uni_pagea1          00000001800966c0     * CIL library *:* CIL module *
 0002:000732f8       cp1254_2uni_2              00000001800972f8     * CIL library *:* CIL module *
 0002:00073318       cp1255_comb_table          0000000180097318     * CIL library *:* CIL module *
 0002:00073320       mac_cyrillic_page22        0000000180097320     * CIL library *:* CIL module *
 0002:00073388       cp1129_page03              0000000180097388     * CIL library *:* CIL module *
 0002:000733b0       translit_page1d4           00000001800973b0     * CIL library *:* CIL module *
 0002:00073bb0       mac_greek_page03           0000000180097bb0     * CIL library *:* CIL module *
 0002:00073c00       hkscs1999_2uni_page88      0000000180097c00     * CIL library *:* CIL module *
 0002:000740e8       mac_romania_page02         00000001800980e8     * CIL library *:* CIL module *
 0002:00074108       hkscs2004_uni2indx_page74  0000000180098108     * CIL library *:* CIL module *
 0002:00074130       gb2312_uni2indx_page9e     0000000180098130     * CIL library *:* CIL module *
 0002:000741a0       koi8_u_page22              00000001800981a0     * CIL library *:* CIL module *
 0002:000741f0       gb2312_2uni_page21         00000001800981f0     * CIL library *:* CIL module *
 0002:00074870       hkscs2004_uni2indx_page201 0000000180098870     * CIL library *:* CIL module *
 0002:000748c0       viet_decomp_table          00000001800988c0     * CIL library *:* CIL module *
 0002:00074f08       iso8859_16_page02          0000000180098f08     * CIL library *:* CIL module *
 0002:00074f10       hkscs2008_2uni_upages      0000000180098f10     * CIL library *:* CIL module *
 0002:00074fd8       koi8_u_page23              0000000180098fd8     * CIL library *:* CIL module *
 0002:00074fe0       cjk_variants               0000000180098fe0     * CIL library *:* CIL module *
 0002:0007adf0       uhc_1_2charset_main        000000018009edf0     * CIL library *:* CIL module *
 0002:0007ae50       cp861_2uni                 000000018009ee50     * CIL library *:* CIL module *
 0002:0007af50       cp922_2uni_2               000000018009ef50     * CIL library *:* CIL module *
 0002:0007af70       hkscs2004_uni2indx_page71  000000018009ef70     * CIL library *:* CIL module *
 0002:0007afc0       mac_romania_page22         000000018009efc0     * CIL library *:* CIL module *
 0002:0007b028       jisx0212_uni2indx_pageff   000000018009f028     * CIL library *:* CIL module *
 0002:0007b040       cns11643_5_2uni_page21     000000018009f040     * CIL library *:* CIL module *
 0002:0007f378       cp922_2uni_3               00000001800a3378     * CIL library *:* CIL module *
 0002:0007f398       armscii_8_page20           00000001800a3398     * CIL library *:* CIL module *
 0002:0007f3b0       shift_jisx0213_comp_table_data 00000001800a33b0     * CIL library *:* CIL module *
 0002:0007f418       pt154_page00               00000001800a3418     * CIL library *:* CIL module *
 0002:0007f438       cp866_page22               00000001800a3438     * CIL library *:* CIL module *
 0002:0007f440       big5_uni2indx_page02       00000001800a3440     * CIL library *:* CIL module *
 0002:0007f4d8       cp861_page03               00000001800a34d8     * CIL library *:* CIL module *
 0002:0007f510       cp864_page25               00000001800a3510     * CIL library *:* CIL module *
 0002:0007f550       cp950ext_uni2indx_page5a   00000001800a3550     * CIL library *:* CIL module *
 0002:0007f590       hkscs2001_uni2indx_page232 00000001800a3590     * CIL library *:* CIL module *
 0002:0007f610       mulelao_page0e             00000001800a3610     * CIL library *:* CIL module *
 0002:0007f670       cp860_page00               00000001800a3670     * CIL library *:* CIL module *
 0002:0007f6d0       cp852_page25               00000001800a36d0     * CIL library *:* CIL module *
 0002:0007f778       cp1255_page20              00000001800a3778     * CIL library *:* CIL module *
 0002:0007f7b0       jisx0213_to_ucs_main       00000001800a37b0     * CIL library *:* CIL module *
 0002:00084fd0       koi8_t_page00              00000001800a8fd0     * CIL library *:* CIL module *
 0002:00084ff0       big5_2003_2charset_page25  00000001800a8ff0     * CIL library *:* CIL module *
 0002:00085010       jisx0208_uni2indx_pageff   00000001800a9010     * CIL library *:* CIL module *
 0002:00085050       rk1048_2uni                00000001800a9050     * CIL library *:* CIL module *
 0002:00085150       aliases                    00000001800a9150     * CIL library *:* CIL module *
 0002:00086e90       hkscs2004_uni2indx_page59  00000001800aae90     * CIL library *:* CIL module *
 0002:00086fb0       cp1250_page02              00000001800aafb0     * CIL library *:* CIL module *
 0002:00086fd0       cp863_page25               00000001800aafd0     * CIL library *:* CIL module *
 0002:00087078       cp1125_page00              00000001800ab078     * CIL library *:* CIL module *
 0002:00087090       all_encodings              00000001800ab090     * CIL library *:* CIL module *
 0002:00088738       hkscs2001_uni2indx_page251 00000001800ac738     * CIL library *:* CIL module *
 0002:00088770       cp1133_page0e              00000001800ac770     * CIL library *:* CIL module *
 0002:000887d0       nextstep_page02            00000001800ac7d0     * CIL library *:* CIL module *
 0002:000887f0       cp932ext_uni2indx_page24   00000001800ac7f0     * CIL library *:* CIL module *
 0002:00088810       iso8859_10_page00          00000001800ac810     * CIL library *:* CIL module *
 0002:000888f0       cp437_page25               00000001800ac8f0     * CIL library *:* CIL module *
 0002:00088998       hkscs2004_uni2indx_page85  00000001800ac998     * CIL library *:* CIL module *
 0002:000889c0       mac_turkish_page00         00000001800ac9c0     * CIL library *:* CIL module *
 0002:00088a20       translit_page25            00000001800aca20     * CIL library *:* CIL module *
 0002:00088aa0       jisx0208_uni2indx_page4e   00000001800acaa0     * CIL library *:* CIL module *
 0002:00089f10       iso8859_3_2uni             00000001800adf10     * CIL library *:* CIL module *
 0002:00089fd0       ksc5601_uni2indx_pageff    00000001800adfd0     * CIL library *:* CIL module *
 0002:0008a010       mac_croatian_page02        00000001800ae010     * CIL library *:* CIL module *
 0002:0008a030       jamo_medial                00000001800ae030     * CIL library *:* CIL module *
 0002:0008a050       cp1255_page02              00000001800ae050     * CIL library *:* CIL module *
 0002:0008a070       isoir165ext_uni2indx_page03 00000001800ae070     * CIL library *:* CIL module *
 0002:0008a0a0       hkscs2004_uni2indx_page2a1 00000001800ae0a0     * CIL library *:* CIL module *
 0002:0008a0d0       georgian_academy_2uni      00000001800ae0d0     * CIL library *:* CIL module *
 0002:0008a110       atarist_page00             00000001800ae110     * CIL library *:* CIL module *
 0002:0008a170       hkscs2008_uni2indx_page73  00000001800ae170     * CIL library *:* CIL module *
 0002:0008a1e8       direct_tab                 00000001800ae1e8     * CIL library *:* CIL module *
 0002:0008a1f8       armscii_8_page00           00000001800ae1f8     * CIL library *:* CIL module *
 0002:0008a200       mac_greek_page00           00000001800ae200     * CIL library *:* CIL module *
 0002:0008a260       hkscs2004_uni2indx_page56  00000001800ae260     * CIL library *:* CIL module *
 0002:0008a2a0       hkscs2001_uni2indx_page26f 00000001800ae2a0     * CIL library *:* CIL module *
 0002:0008a2d0       hkscs2004_uni2indx_page5f  00000001800ae2d0     * CIL library *:* CIL module *
 0002:0008a2e0       cp1046_2uni                00000001800ae2e0     * CIL library *:* CIL module *
 0002:0008a3e0       mac_roman_page00           00000001800ae3e0     * CIL library *:* CIL module *
 0002:0008a440       stringpool_contents        00000001800ae440     * CIL library *:* CIL module *
 0002:0008b228       jamo_initial               00000001800af228     * CIL library *:* CIL module *
 0002:0008b248       mac_iceland_page21         00000001800af248     * CIL library *:* CIL module *
 0002:0008b250       hkscs2008_uni2indx_page231 00000001800af250     * CIL library *:* CIL module *
 0002:0008b2a8       iso8859_16_page20          00000001800af2a8     * CIL library *:* CIL module *
 0002:0008b2b0       hkscs2001_uni2indx_page70  00000001800af2b0     * CIL library *:* CIL module *
 0002:0008b3e0       cp1257_2uni                00000001800af3e0     * CIL library *:* CIL module *
 0002:0008b4e0       cp862_page22               00000001800af4e0     * CIL library *:* CIL module *
 0002:0008b530       mac_romania_page00         00000001800af530     * CIL library *:* CIL module *
 0002:0008b628       hkscs2001_uni2indx_page219 00000001800af628     * CIL library *:* CIL module *
 0002:0008b650       cp1124_page04              00000001800af650     * CIL library *:* CIL module *
 0002:0008b6e8       mac_centraleurope_page22_1 00000001800af6e8     * CIL library *:* CIL module *
 0002:0008b6f0       cns11643_3_2uni_page64     00000001800af6f0     * CIL library *:* CIL module *
 0002:0008b938       riscos1_page01             00000001800af938     * CIL library *:* CIL module *
 0002:0008b960       koi8_r_page25              00000001800af960     * CIL library *:* CIL module *
 0002:0008ba08       gb18030ext_page47_2        00000001800afa08     * CIL library *:* CIL module *
 0002:0008ba38       hkscs2001_uni2indx_page299 00000001800afa38     * CIL library *:* CIL module *
 0002:0008ba50       koi8_u_page04              00000001800afa50     * CIL library *:* CIL module *
 0002:0008bae8       mac_turkish_page21         00000001800afae8     * CIL library *:* CIL module *
 0002:0008baf0       jisx0213_from_ucs_level1   00000001800afaf0     * CIL library *:* CIL module *
 0002:0008d028       ?conversion_lists@?1??iso2022_jp2_wctomb@@9@9 00000001800b1028     * CIL library *:* CIL module *
 0002:0008d038       mac_turkish_page20         00000001800b1038     * CIL library *:* CIL module *
 0002:0008d060       translit_pageff            00000001800b1060     * CIL library *:* CIL module *
 0002:0008d240       iso8859_15_2uni            00000001800b1240     * CIL library *:* CIL module *
 0002:0008d280       cp737_page03               00000001800b1280     * CIL library *:* CIL module *
 0002:0008d2d0       ksc5601_uni2indx_pagef9    00000001800b12d0     * CIL library *:* CIL module *
 0002:0008d318       mac_centraleurope_page22   00000001800b1318     * CIL library *:* CIL module *
 0002:0008d338       hkscs2001_uni2indx_page65  00000001800b1338     * CIL library *:* CIL module *
 0002:0008d360       mac_croatian_page22        00000001800b1360     * CIL library *:* CIL module *
 0002:0008d3c8       cp863_page03               00000001800b13c8     * CIL library *:* CIL module *
 0002:0008d400       hkscs2001_uni2indx_page4e  00000001800b1400     * CIL library *:* CIL module *
 0002:0008d4f0       hkscs1999_uni2indx_page34  00000001800b14f0     * CIL library *:* CIL module *
 0002:0008efe0       cp1256_page06              00000001800b2fe0     * CIL library *:* CIL module *
 0002:0008f0b0       rk1048_page04              00000001800b30b0     * CIL library *:* CIL module *
 0002:0008f1a0       iso8859_6_page06           00000001800b31a0     * CIL library *:* CIL module *
 0002:0008f1f0       tcvn_2uni_2                00000001800b31f0     * CIL library *:* CIL module *
 0002:0008f2f0       uhc_1_uni2indx_pageac      00000001800b32f0     * CIL library *:* CIL module *
 0002:0008fa20       cp1256_page00              00000001800b3a20     * CIL library *:* CIL module *
 0002:0008fa80       hkscs2004_uni2indx_page26b 00000001800b3a80     * CIL library *:* CIL module *
 0002:0008fad8       translit_page02            00000001800b3ad8     * CIL library *:* CIL module *
 0002:0008fae8       hkscs2004_uni2indx_page79  00000001800b3ae8     * CIL library *:* CIL module *
 0002:0008fb20       tds565_page01              00000001800b3b20     * CIL library *:* CIL module *
 0002:0008fb60       cns11643_inv_uni2indx_page02 00000001800b3b60     * CIL library *:* CIL module *
 0002:0008fbd8       jamo_medial_index          00000001800b3bd8     * CIL library *:* CIL module *
 0002:0008fbf8       mac_romania_page21         00000001800b3bf8     * CIL library *:* CIL module *
 0002:0008fc00       hkscs2008_uni2indx_page84  00000001800b3c00     * CIL library *:* CIL module *
 0002:0008fc88       cp775_page20               00000001800b3c88     * CIL library *:* CIL module *
 0002:0008fc90       cp857_page25               00000001800b3c90     * CIL library *:* CIL module *
 0002:0008fd38       hkscs2008_uni2indx_page97  00000001800b3d38     * CIL library *:* CIL module *
 0002:0008fd50       cp1129_2uni                00000001800b3d50     * CIL library *:* CIL module *
 0002:0008fe10       hkscs2004_uni2indx_page289 00000001800b3e10     * CIL library *:* CIL module *
 0002:0008fe30       hkscs2004_2charset         00000001800b3e30     * CIL library *:* CIL module *
 0002:0008ff28       gb18030ext_pagefe          00000001800b3f28     * CIL library *:* CIL module *
 0002:0008ff48       cp865_page03               00000001800b3f48     * CIL library *:* CIL module *
 0002:0008ff80       cp1255_2uni                00000001800b3f80     * CIL library *:* CIL module *
 0002:00090080       hkscs1999_uni2indx_page2e  00000001800b4080     * CIL library *:* CIL module *
 0002:00090190       translit_pagef9            00000001800b4190     * CIL library *:* CIL module *
 0002:00090470       mac_ukraine_page22         00000001800b4470     * CIL library *:* CIL module *
 0002:000904d8       hkscs2008_uni2indx_page20a 00000001800b44d8     * CIL library *:* CIL module *
 0002:00090500       mac_cyrillic_page04        00000001800b4500     * CIL library *:* CIL module *
 0002:00090560       cp864_pagefe               00000001800b4560     * CIL library *:* CIL module *
 0002:000905e8       mac_croatian_page20        00000001800b45e8     * CIL library *:* CIL module *
 0002:00090620       big5_uni2indx_page24       00000001800b4620     * CIL library *:* CIL module *
 0002:000906b8       cp1254_page20              00000001800b46b8     * CIL library *:* CIL module *
 0002:000906e8       cp861_page23               00000001800b46e8     * CIL library *:* CIL module *
 0002:00090700       mac_arabic_page06          00000001800b4700     * CIL library *:* CIL module *
 0002:000907d0       big5_uni2indx_pagefe       00000001800b47d0     * CIL library *:* CIL module *
 0002:00090830       jisx0208_uni2indx_page20   00000001800b4830     * CIL library *:* CIL module *
 0002:000908f8       cp864_page22               00000001800b48f8     * CIL library *:* CIL module *
 0002:00090930       hkscs2004_2uni_page87      00000001800b4930     * CIL library *:* CIL module *
 0002:000909a8       cp864_2uni_1               00000001800b49a8     * CIL library *:* CIL module *
 0002:000909c8       cp860_page03               00000001800b49c8     * CIL library *:* CIL module *
 0002:00090a00       nextstep_2uni              00000001800b4a00     * CIL library *:* CIL module *
 0002:00090b00       iso8859_2_page02           00000001800b4b00     * CIL library *:* CIL module *
 0002:00090b20       uhc_2_uni2indx_pagec8      00000001800b4b20     * CIL library *:* CIL module *
 0002:00090f10       hkscs2001_uni2indx_page28d 00000001800b4f10     * CIL library *:* CIL module *
 0002:00090f40       tcvn_2uni_1                00000001800b4f40     * CIL library *:* CIL module *
 0002:00090f70       jamo_final_notinitial      00000001800b4f70     * CIL library *:* CIL module *
 0002:00090f90       gbkext_inv_2charset        00000001800b4f90     * CIL library *:* CIL module *
 0002:00097f68       iso8859_9_page00           00000001800bbf68     * CIL library *:* CIL module *
 0002:00097f98       hkscs2004_uni2indx_page6e  00000001800bbf98     * CIL library *:* CIL module *
 0002:00097fb0       cns11643_3_2uni_page21     00000001800bbfb0     * CIL library *:* CIL module *
 0002:0009afc0       big5_uni2indx_page30       00000001800befc0     * CIL library *:* CIL module *
 0002:0009b0b8       cp922_2uni_1               00000001800bf0b8     * CIL library *:* CIL module *
 0002:0009b0e0       iso2022_jp3_comp_table_data 00000001800bf0e0     * CIL library *:* CIL module *
 0002:0009b150       cp737_page22               00000001800bf150     * CIL library *:* CIL module *
 0002:0009b1a0       hkscs2004_uni2indx_page4a  00000001800bf1a0     * CIL library *:* CIL module *
 0002:0009b1d0       hkscs2001_2charset         00000001800bf1d0     * CIL library *:* CIL module *
 0002:0009b2c0       gbkext_inv_uni2indx_page30 00000001800bf2c0     * CIL library *:* CIL module *
 0002:0009b300       koi8_t_page20              00000001800bf300     * CIL library *:* CIL module *
 0002:0009b330       hkscs1999_2uni_page8d      00000001800bf330     * CIL library *:* CIL module *
 0002:0009cbb8       cns11643_inv_uni2indx_pagefa 00000001800c0bb8     * CIL library *:* CIL module *
 0002:0009cbd0       koi8_t_2uni                00000001800c0bd0     * CIL library *:* CIL module *
 0002:0009ccd0       mac_iceland_page02         00000001800c0cd0     * CIL library *:* CIL module *
 0002:0009ccf0       cp852_page00               00000001800c0cf0     * CIL library *:* CIL module *
 0002:0009cdd0       cp936ext_2uni_pagea8       00000001800c0dd0     * CIL library *:* CIL module *
 0002:0009cde0       iso8859_2_page00           00000001800c0de0     * CIL library *:* CIL module *
 0002:0009cec0       jisx0208_uni2indx_page25   00000001800c0ec0     * CIL library *:* CIL module *
 0002:0009cf20       translit_page1e            00000001800c0f20     * CIL library *:* CIL module *
 0002:0009d060       mac_turkish_2uni           00000001800c1060     * CIL library *:* CIL module *
 0002:0009d160       iso8859_5_page00           00000001800c1160     * CIL library *:* CIL module *
 0002:0009d170       cp1252_page20              00000001800c1170     * CIL library *:* CIL module *
 0002:0009d1a0       hkscs2008_uni2indx_page70  00000001800c11a0     * CIL library *:* CIL module *
 0002:0009d1c0       hkscs2008_uni2indx_page235 00000001800c11c0     * CIL library *:* CIL module *
 0002:0009d230       iso8859_13_page00          00000001800c1230     * CIL library *:* CIL module *
 0002:0009d310       gb18030ext_page9f          00000001800c1310     * CIL library *:* CIL module *
 0002:0009d330       isoir165ext_uni2indx_page4e 00000001800c1330     * CIL library *:* CIL module *
 0002:0009def0       koi8_ru_page00             00000001800c1ef0     * CIL library *:* CIL module *
 0002:0009df50       translit_page31            00000001800c1f50     * CIL library *:* CIL module *
 0002:0009e010       translit_page22_4          00000001800c2010     * CIL library *:* CIL module *
 0002:0009e070       translit_page20            00000001800c2070     * CIL library *:* CIL module *
 0002:0009e120       pt154_page04               00000001800c2120     * CIL library *:* CIL module *
 0002:0009e210       iso8859_7_page20           00000001800c2210     * CIL library *:* CIL module *
 0002:0009e220       hkscs2001_uni2indx_page21d 00000001800c2220     * CIL library *:* CIL module *
 0002:0009e250       cp856_page25               00000001800c2250     * CIL library *:* CIL module *
 0002:0009e300       hkscs1999_2uni_pagef9      00000001800c2300     * CIL library *:* CIL module *
 0002:0009ea60       cp932ext_uni2indx_page4e   00000001800c2a60     * CIL library *:* CIL module *
 0002:0009ec50       hkscs2001_uni2indx_page76  00000001800c2c50     * CIL library *:* CIL module *
 0002:0009ed10       isoir165ext_uni2indx_page32 00000001800c2d10     * CIL library *:* CIL module *
 0002:0009ed90       georgian_ps_page20         00000001800c2d90     * CIL library *:* CIL module *
 0002:0009edc0       mac_roman_2uni             00000001800c2dc0     * CIL library *:* CIL module *
 0002:0009eec0       gb2312_uni2indx_page4e     00000001800c2ec0     * CIL library *:* CIL module *
 0002:000a0280       mac_iceland_page22         00000001800c4280     * CIL library *:* CIL module *
 0002:000a02f0       cns11643_1_2uni_page44     00000001800c42f0     * CIL library *:* CIL module *
 0002:000a2d28       jamo_initial_index         00000001800c6d28     * CIL library *:* CIL module *
 0002:000a2d50       cp922_page00               00000001800c6d50     * CIL library *:* CIL module *
 0002:000a2db0       iso8859_7_page03           00000001800c6db0     * CIL library *:* CIL module *
 0002:000a2e10       cp1250_2uni                00000001800c6e10     * CIL library *:* CIL module *
 0002:000a2f10       hkscs2004_uni2indx_page97  00000001800c6f10     * CIL library *:* CIL module *
 0002:000a2f70       cns11643_7_2uni_page21     00000001800c6f70     * CIL library *:* CIL module *
 0002:000a6290       cp860_page25               00000001800ca290     * CIL library *:* CIL module *
 0002:000a6340       translit_page31_5          00000001800ca340     * CIL library *:* CIL module *
 0002:000a6760       cp856_page00               00000001800ca760     * CIL library *:* CIL module *
 0002:000a67c0       big5_2003_2uni_pagec6      00000001800ca7c0     * CIL library *:* CIL module *
 0002:000a6850       iso8859_4_page00           00000001800ca850     * CIL library *:* CIL module *
 0002:000a6930       cp1131_page25              00000001800ca930     * CIL library *:* CIL module *
 0002:000a69c8       cp1258_comp_bases          00000001800ca9c8     * CIL library *:* CIL module *
 0002:000a6a00       atarist_page22             00000001800caa00     * CIL library *:* CIL module *
 0002:000a6a60       cp437_page22               00000001800caa60     * CIL library *:* CIL module *
 0002:000a6ab0       hkscs2008_uni2indx_page3a  00000001800caab0     * CIL library *:* CIL module *
 0002:000a6af0       gbkext_inv_uni2indx_pagefe 00000001800caaf0     * CIL library *:* CIL module *
 0002:000a6b70       uhc_1_2charset             00000001800cab70     * CIL library *:* CIL module *
 0002:000a81b0       cp874_page0e               00000001800cc1b0     * CIL library *:* CIL module *
 0002:000a8210       hkscs2001_uni2indx_page29c 00000001800cc210     * CIL library *:* CIL module *
 0002:000a8230       hkscs2001_2uni_upages      00000001800cc230     * CIL library *:* CIL module *
 0002:000a8390       cp1125_page25              00000001800cc390     * CIL library *:* CIL module *
 0002:000a8440       cp775_2uni                 00000001800cc440     * CIL library *:* CIL module *
 0002:000a8540       iso8859_15_page00          00000001800cc540     * CIL library *:* CIL module *
 0002:000a8560       jisx0213_from_ucs_level2_data 00000001800cc560     * CIL library *:* CIL module *
 0002:000adcf0       koi8_ru_2uni               00000001800d1cf0     * CIL library *:* CIL module *
 0002:000addf0       cns11643_15_2uni_upages    00000001800d1df0     * CIL library *:* CIL module *
 0002:000ae1f0       cp950_2uni_pagea1          00000001800d21f0     * CIL library *:* CIL module *
 0002:000ae468       cp1258_page02              00000001800d2468     * CIL library *:* CIL module *
 0002:000ae490       cp950ext_2charset          00000001800d2490     * CIL library *:* CIL module *
 0002:000ae4e8       hkscs2004_uni2indx_page81  00000001800d24e8     * CIL library *:* CIL module *
 0002:000ae510       cp1046_pagefe              00000001800d2510     * CIL library *:* CIL module *
 0002:000ae5a0       translit_page1e_2          00000001800d25a0     * CIL library *:* CIL module *
 0002:000ae5b0       big5_2003_2uni_pagef9      00000001800d25b0     * CIL library *:* CIL module *
 0002:000ae608       hkscs1999_uni2indx_page27  00000001800d2608     * CIL library *:* CIL module *
 0002:000ae620       hkscs2004_uni2indx_page21d 00000001800d2620     * CIL library *:* CIL module *
 0002:000ae670       cp1254_2uni_3              00000001800d2670     * CIL library *:* CIL module *
 0002:000ae690       jisx0208_2uni_page30       00000001800d2690     * CIL library *:* CIL module *
 0002:000b1890       jisx0208_uni2indx_page30   00000001800d5890     * CIL library *:* CIL module *
 0002:000b18d0       translit_page06            00000001800d58d0     * CIL library *:* CIL module *
 0002:000b18f0       gb18030ext_page36          00000001800d58f0     * CIL library *:* CIL module *
 0002:000b1920       mac_thai_page0e            00000001800d5920     * CIL library *:* CIL module *
 0002:000b1980       ksc5601_uni2indx_page20    00000001800d5980     * CIL library *:* CIL module *
 0002:000b1b20       mac_hebrew_page00          00000001800d5b20     * CIL library *:* CIL module *
 0002:000b1b80       cp1046_page00              00000001800d5b80     * CIL library *:* CIL module *
 0002:000b1bf0       cp932ext_uni2indx_page32   00000001800d5bf0     * CIL library *:* CIL module *
 0002:000b1c70       cp862_2uni                 00000001800d5c70     * CIL library *:* CIL module *
 0002:000b1d70       cp1256_page01              00000001800d5d70     * CIL library *:* CIL module *
 0002:000b1dc0       gb18030uni_charset2uni_ranges 00000001800d5dc0     * CIL library *:* CIL module *
 0002:000b2100       cp863_page00               00000001800d6100     * CIL library *:* CIL module *
 0002:000b2160       cp1046_page25              00000001800d6160     * CIL library *:* CIL module *
 0002:000b2180       uhc_2_2uni_main_pagea1     00000001800d6180     * CIL library *:* CIL module *
 0002:000b2220       cp866_page04               00000001800d6220     * CIL library *:* CIL module *
 0002:000b2280       gb18030uni_uni2charset_ranges 00000001800d6280     * CIL library *:* CIL module *
 0002:000b25c0       translit_data              00000001800d65c0     * CIL library *:* CIL module *
 0002:000bb430       cp775_page25               00000001800df430     * CIL library *:* CIL module *
 0002:000bb4e0       hkscs2004_uni2indx_page43  00000001800df4e0     * CIL library *:* CIL module *
 0002:000bb600       big5_uni2indx_page20       00000001800df600     * CIL library *:* CIL module *
 0002:000bb6b0       iso8859_4_2uni             00000001800df6b0     * CIL library *:* CIL module *
 0002:000bb770       hkscs2008_uni2indx_page94  00000001800df770     * CIL library *:* CIL module *
 0002:000bb780       cp932ext_uni2indx_page21   00000001800df780     * CIL library *:* CIL module *
 0002:000bb7f0       cp853_page25               00000001800df7f0     * CIL library *:* CIL module *
 0002:000bb8a0       hkscs2001_uni2indx_page249 00000001800df8a0     * CIL library *:* CIL module *
 0002:000bb8f0       hkscs2001_uni2indx_page3c  00000001800df8f0     * CIL library *:* CIL module *
 0002:000bb9b0       cns11643_inv_uni2indx_page200 00000001800df9b0     * CIL library *:* CIL module *
 0002:000be370       cp863_2uni                 00000001800e2370     * CIL library *:* CIL module *
 0002:000be470       hkscs2008_2uni_page87      00000001800e2470     * CIL library *:* CIL module *
 0002:000be570       hkscs2008_uni2indx_page25d 00000001800e2570     * CIL library *:* CIL module *
 0002:000be5a0       jamo_final                 00000001800e25a0     * CIL library *:* CIL module *
 0002:000be5c0       iso8859_14_page01_1        00000001800e25c0     * CIL library *:* CIL module *
 0002:000be5d0       pt154_2uni                 00000001800e25d0     * CIL library *:* CIL module *
 0002:000be650       cp864_page06               00000001800e2650     * CIL library *:* CIL module *
 0002:000be6c0       hkscs2001_uni2indx_page6c  00000001800e26c0     * CIL library *:* CIL module *
 0002:000be740       cp852_page02               00000001800e2740     * CIL library *:* CIL module *
 0002:000be760       hkscs2008_uni2indx_page3e  00000001800e2760     * CIL library *:* CIL module *
 0002:000be7a0       translit_page00            00000001800e27a0     * CIL library *:* CIL module *
 0002:000bea50       hkscs1999_uni2indx_page00  00000001800e2a50     * CIL library *:* CIL module *
 0002:000beb10       cns11643_4a_2uni_upages    00000001800e2b10     * CIL library *:* CIL module *
 0002:000bee60       cp1125_2uni                00000001800e2e60     * CIL library *:* CIL module *
 0002:000bef00       cp775_page00               00000001800e2f00     * CIL library *:* CIL module *
 0002:000befe0       tds565_page00_1            00000001800e2fe0     * CIL library *:* CIL module *
 0002:000bf020       gbkext2_2uni_pagea8        00000001800e3020     * CIL library *:* CIL module *
 0002:000c30c0       isoir165ext_2charset       00000001800e70c0     * CIL library *:* CIL module *
 0002:000c3798       cp1258_page20              00000001800e7798     * CIL library *:* CIL module *
 0002:000c37d0       hkscs1999_uni2indx_page2f8 00000001800e77d0     * CIL library *:* CIL module *
 0002:000c3850       hkscs1999_2uni_upages      00000001800e7850     * CIL library *:* CIL module *
 0002:000c4788       tcvn_comp_bases            00000001800e8788     * CIL library *:* CIL module *
 0002:000c47c0       cp1252_2uni                00000001800e87c0     * CIL library *:* CIL module *
 0002:000c4800       armscii_8_page05           00000001800e8800     * CIL library *:* CIL module *
 0002:000c4860       cp869_page00               00000001800e8860     * CIL library *:* CIL module *
 0002:000c4880       cns11643_5_2uni_upages     00000001800e8880     * CIL library *:* CIL module *
 0002:000c4c18       cp1252_page02              00000001800e8c18     * CIL library *:* CIL module *
 0002:000c4c38       gb18030ext_page39          00000001800e8c38     * CIL library *:* CIL module *
 0002:000c4c70       cp932ext_2uni_pageed       00000001800e8c70     * CIL library *:* CIL module *
 0002:000c4f60       jisx0212_uni2indx_page21   00000001800e8f60     * CIL library *:* CIL module *
 0002:000c4f70       iso8859_6_page00           00000001800e8f70     * CIL library *:* CIL module *
 0002:000c4f80       iso8859_3_page00           00000001800e8f80     * CIL library *:* CIL module *
 0002:000c4fe0       cns11643_inv_uni2indx_page2f8 00000001800e8fe0     * CIL library *:* CIL module *
 0002:000c5068       rk1048_page20              00000001800e9068     * CIL library *:* CIL module *
 0002:000c50a0       koi8_u_2uni                00000001800e90a0     * CIL library *:* CIL module *
 0002:000c51a0       iso8859_8_2uni             00000001800e91a0     * CIL library *:* CIL module *
 0002:000c5260       cp861_page00               00000001800e9260     * CIL library *:* CIL module *
 0002:000c52c0       georgian_ps_2uni_2         00000001800e92c0     * CIL library *:* CIL module *
 0002:000c5310       cp737_2uni                 00000001800e9310     * CIL library *:* CIL module *
 0002:000c5410       mac_hebrew_2uni            00000001800e9410     * CIL library *:* CIL module *
 0002:000c5510       big5_2uni_pagec9           00000001800e9510     * CIL library *:* CIL module *
 0002:000c90d8       xdirect_tab                00000001800ed0d8     * CIL library *:* CIL module *
 0002:000c90e8       mac_cyrillic_page00        00000001800ed0e8     * CIL library *:* CIL module *
 0002:000c9108       hkscs2008_uni2indx_page241 00000001800ed108     * CIL library *:* CIL module *
 0002:000c9130       koi8_r_page22              00000001800ed130     * CIL library *:* CIL module *
 0002:000c9180       hkscs2001_uni2indx_page4b  00000001800ed180     * CIL library *:* CIL module *
 0002:000c91f0       jisx0212_2uni_page29       00000001800ed1f0     * CIL library *:* CIL module *
 0002:000c9420       translit_page22            00000001800ed420     * CIL library *:* CIL module *
 0002:000c94e0       cjk_variants_indx          00000001800ed4e0     * CIL library *:* CIL module *
 0002:000d38e0       koi8_ru_page22             00000001800f78e0     * CIL library *:* CIL module *
 0002:000d3930       riscos1_page22             00000001800f7930     * CIL library *:* CIL module *
 0002:000d3940       georgian_ps_page01         00000001800f7940     * CIL library *:* CIL module *
 0002:000d3990       cp932ext_uni2indx_page83   00000001800f7990     * CIL library *:* CIL module *
 0002:000d3a40       cp1253_page00              00000001800f7a40     * CIL library *:* CIL module *
 0002:000d3a60       iso8859_14_page1e_0        00000001800f7a60     * CIL library *:* CIL module *
 0002:000d3af0       cp932ext_uni2indx_pagef9   00000001800f7af0     * CIL library *:* CIL module *
 0002:000d3b40       hp_roman8_page02           00000001800f7b40     * CIL library *:* CIL module *
 0002:000d3b60       big5_uni2indx_page4e       00000001800f7b60     * CIL library *:* CIL module *
 0002:000d4fd0       cns11643_7_2uni_upages     00000001800f8fd0     * CIL library *:* CIL module *
 0002:000d52f0       hkscs2004_uni2indx_page27b 00000001800f92f0     * CIL library *:* CIL module *
 0002:000d5370       cp1161_2uni                00000001800f9370     * CIL library *:* CIL module *
 0002:000d5430       mac_ukraine_2uni           00000001800f9430     * CIL library *:* CIL module *
 0002:000d5530       cp1252_page01              00000001800f9530     * CIL library *:* CIL module *
 0002:000d5580       big5_2003_2uni_pagea1      00000001800f9580     * CIL library *:* CIL module *
 0002:000d5800       cp852_2uni                 00000001800f9800     * CIL library *:* CIL module *
 0002:000d5900       koi8_t_page04              00000001800f9900     * CIL library *:* CIL module *
 0002:000d59f0       jisx0212_uni2indx_page00   00000001800f99f0     * CIL library *:* CIL module *
 0002:000d5b10       armscii_8_2uni             00000001800f9b10     * CIL library *:* CIL module *
 0002:000d5bd0       hkscs2001_uni2indx_page7a  00000001800f9bd0     * CIL library *:* CIL module *
 0002:000d5cf0       cp932ext_2uni_pagefa       00000001800f9cf0     * CIL library *:* CIL module *
 0002:000d6000       nextstep_page00            00000001800fa000     * CIL library *:* CIL module *
 0002:000d6060       mac_arabic_2uni            00000001800fa060     * CIL library *:* CIL module *
 0002:000d6160       gbkext1_2uni_page81        00000001800fa160     * CIL library *:* CIL module *
 0002:000d90e0       hp_roman8_page00           00000001800fd0e0     * CIL library *:* CIL module *
 0002:000d9140       georgian_academy_page00    00000001800fd140     * CIL library *:* CIL module *
 0002:000d9160       riscos1_page21             00000001800fd160     * CIL library *:* CIL module *
 0002:000d9170       hkscs2008_uni2indx_page2ad 00000001800fd170     * CIL library *:* CIL module *
 0002:000d91b0       ksc5601_2uni_page4a        00000001800fd1b0     * CIL library *:* CIL module *
 0002:000db7e0       viscii_2uni_1              00000001800ff7e0     * CIL library *:* CIL module *
 0002:000db820       gbkext_inv_uni2indx_page20 00000001800ff820     * CIL library *:* CIL module *
 0002:000db8d0       mac_iceland_page00         00000001800ff8d0     * CIL library *:* CIL module *
 0002:000db930       big5_uni2indx_page00       00000001800ff930     * CIL library *:* CIL module *
 0002:000db970       hkscs2001_uni2indx_page69  00000001800ff970     * CIL library *:* CIL module *
 0002:000db9d0       jisx0213_to_ucs_pagestart  00000001800ff9d0     * CIL library *:* CIL module *
 0002:000dbdc0       jisx0208_uni2indx_page03   00000001800ffdc0     * CIL library *:* CIL module *
 0002:000dbe20       cns11643_15_2uni_page21    00000001800ffe20     * CIL library *:* CIL module *
 0002:000df628       mac_turkish_page02         0000000180103628     * CIL library *:* CIL module *
 0002:000df650       jisx0208_uni2indx_page00   0000000180103650     * CIL library *:* CIL module *
 0002:000df690       hkscs2004_uni2indx_page3d  0000000180103690     * CIL library *:* CIL module *
 0002:000df6d0       hkscs2004_2uni_page8c      00000001801036d0     * CIL library *:* CIL module *
 0002:000df850       cp932ext_uni2indx_page57   0000000180103850     * CIL library *:* CIL module *
 0002:000df900       gb18030ext_page47_1        0000000180103900     * CIL library *:* CIL module *
 0002:000df920       iso8859_16_page00          0000000180103920     * CIL library *:* CIL module *
 0002:000dfa00       mac_turkish_page01         0000000180103a00     * CIL library *:* CIL module *
 0002:000dfa80       hkscs2004_uni2indx_page4f  0000000180103a80     * CIL library *:* CIL module *
 0002:000dfab0       hkscs2004_uni2indx_page235 0000000180103ab0     * CIL library *:* CIL module *
 0002:000dfaf8       cp1251_page00              0000000180103af8     * CIL library *:* CIL module *
 0002:000dfb20       gb18030ext_page34          0000000180103b20     * CIL library *:* CIL module *
 0002:000dfb90       cp1125_page04              0000000180103b90     * CIL library *:* CIL module *
 0002:000dfc30       hkscs2004_uni2indx_page20a 0000000180103c30     * CIL library *:* CIL module *
 0002:000dfca0       iso8859_5_page04           0000000180103ca0     * CIL library *:* CIL module *
 0002:000dfd00       armscii_8_page00_1         0000000180103d00     * CIL library *:* CIL module *
 0002:000dfd20       translit_page03            0000000180103d20     * CIL library *:* CIL module *
 0002:000dfd80       hkscs2008_uni2indx_page38  0000000180103d80     * CIL library *:* CIL module *
 0002:000dfda0       iso8859_10_2uni            0000000180103da0     * CIL library *:* CIL module *
 0002:000dfe60       hkscs2001_uni2indx_page67  0000000180103e60     * CIL library *:* CIL module *
 0002:000dfe80       jisx0212_2charset          0000000180103e80     * CIL library *:* CIL module *
 0002:000e2de8       hkscs2004_uni2indx_page9f  0000000180106de8     * CIL library *:* CIL module *
 0002:000e2e18       translit_page2a            0000000180106e18     * CIL library *:* CIL module *
 0002:000e2e28       cp1254_page00              0000000180106e28     * CIL library *:* CIL module *
 0002:000e2e60       cp1255_comp_table          0000000180106e60     * CIL library *:* CIL module *
 0002:000e2ea0       cp865_page00               0000000180106ea0     * CIL library *:* CIL module *
 0002:000e2f00       cp855_page04               0000000180106f00     * CIL library *:* CIL module *
 0002:000e2f60       viscii_page1e              0000000180106f60     * CIL library *:* CIL module *
 0002:000e2fc0       cp1255_page00              0000000180106fc0     * CIL library *:* CIL module *
 0002:000e3020       hkscs2004_uni2indx_page3f  0000000180107020     * CIL library *:* CIL module *
 0002:000e30e0       cp864_2uni_2               00000001801070e0     * CIL library *:* CIL module *
 0002:000e31e0       hkscs2008_uni2indx_page6a  00000001801071e0     * CIL library *:* CIL module *
 0002:000e31f0       hkscs1999_uni2indx_page23  00000001801071f0     * CIL library *:* CIL module *
 0002:000e3290       cp853_page00               0000000180107290     * CIL library *:* CIL module *
 0002:000e32f0       hkscs2008_uni2indx_page43  00000001801072f0     * CIL library *:* CIL module *
 0002:000e3370       hkscs2008_2charset         0000000180107370     * CIL library *:* CIL module *
 0002:000e3400       hkscs1999_uni2indx_page297 0000000180107400     * CIL library *:* CIL module *
 0002:000e37f0       cns11643_1_2uni_page21     00000001801077f0     * CIL library *:* CIL module *
 0002:000e3be0       cp857_page01               0000000180107be0     * CIL library *:* CIL module *
 0002:000e3c28       cp1046_pagef8              0000000180107c28     * CIL library *:* CIL module *
 0002:000e3c40       cp1255_comp_table_data     0000000180107c40     * CIL library *:* CIL module *
 0002:000e3cd0       cp866_2uni                 0000000180107cd0     * CIL library *:* CIL module *
 0002:000e3d70       iso8859_9_page01           0000000180107d70     * CIL library *:* CIL module *
 0002:000e3dc0       georgian_academy_page01    0000000180107dc0     * CIL library *:* CIL module *
 0002:000e40b0       $unwind$_setargv           00000001801080b0     * CIL library *:* CIL module *
 0002:000e40b0       $unwind$?FunctionCallbackWrapper@imp@Nan@@YAXAEBV?$FunctionCallbackInfo@VValue@v8@@@v8@@@Z 00000001801080b0     * CIL library *:* CIL module *
 0002:000e40c0       $unwind$?New@?$Factory@VFunctionTemplate@v8@@@imp@Nan@@SA?AV?$Local@VFunctionTemplate@v8@@@v8@@P6AXAEBV?$FunctionCallbackInfo@VValue@v8@@@3@@ZV?$Local@VValue@v8@@@5@V?$Local@VSignature@v8@@@5@@Z 00000001801080c0     * CIL library *:* CIL module *
 0002:000e40cc       $chain$0$?New@?$Factory@VFunctionTemplate@v8@@@imp@Nan@@SA?AV?$Local@VFunctionTemplate@v8@@@v8@@P6AXAEBV?$FunctionCallbackInfo@VValue@v8@@@3@@ZV?$Local@VValue@v8@@@5@V?$Local@VSignature@v8@@@5@@Z 00000001801080cc     * CIL library *:* CIL module *
 0002:000e40e0       $chain$1$?New@?$Factory@VFunctionTemplate@v8@@@imp@Nan@@SA?AV?$Local@VFunctionTemplate@v8@@@v8@@P6AXAEBV?$FunctionCallbackInfo@VValue@v8@@@3@@ZV?$Local@VValue@v8@@@5@V?$Local@VSignature@v8@@@5@@Z 00000001801080e0     * CIL library *:* CIL module *
 0002:000e40f0       $unwind$_callnewh          00000001801080f0     * CIL library *:* CIL module *
 0002:000e40f0       $unwind$__crtLoadWinApiPointers 00000001801080f0     * CIL library *:* CIL module *
 0002:000e40f0       $unwind$_lock_file         00000001801080f0     * CIL library *:* CIL module *
 0002:000e40f0       $unwind$__crtTerminateProcess 00000001801080f0     * CIL library *:* CIL module *
 0002:000e40f0       $unwind$_amsg_exit         00000001801080f0     * CIL library *:* CIL module *
 0002:000e40f0       $unwind$??0exception@std@@QEAA@AEBV01@@Z 00000001801080f0     * CIL library *:* CIL module *
 0002:000e40f0       $unwind$_freebuf           00000001801080f0     * CIL library *:* CIL module *
 0002:000e40f0       $unwind$__crtUnhandledException 00000001801080f0     * CIL library *:* CIL module *
 0002:000e40f0       $unwind$euc_jisx0213_mbtowc 00000001801080f0     * CIL library *:* CIL module *
 0002:000e40f0       $unwind$??0_LocaleUpdate@@QEAA@PEAUlocaleinfo_struct@@@Z 00000001801080f0     * CIL library *:* CIL module *
 0002:000e40f0       $unwind$_fflush_nolock     00000001801080f0     * CIL library *:* CIL module *
 0002:000e40f0       $unwind$_lock_file2        00000001801080f0     * CIL library *:* CIL module *
 0002:000e40f0       $unwind$__onexitinit       00000001801080f0     * CIL library *:* CIL module *
 0002:000e40f0       $unwind$__crtCorExitProcess 00000001801080f0     * CIL library *:* CIL module *
 0002:000e40f0       $unwind$_mtinit            00000001801080f0     * CIL library *:* CIL module *
 0002:000e40f0       $unwind$_cinit             00000001801080f0     * CIL library *:* CIL module *
 0002:000e40f0       $unwind$__crtIsPackagedApp 00000001801080f0     * CIL library *:* CIL module *
 0002:000e40f0       $unwind$wcsncpy_s          00000001801080f0     * CIL library *:* CIL module *
 0002:000e40f0       $unwind$??0bad_alloc@std@@QEAA@AEBV01@@Z 00000001801080f0     * CIL library *:* CIL module *
 0002:000e40f0       $unwind$strcpy_s           00000001801080f0     * CIL library *:* CIL module *
 0002:000e40f0       $unwind$_getptd            00000001801080f0     * CIL library *:* CIL module *
 0002:000e40f0       $unwind$_init_pointers     00000001801080f0     * CIL library *:* CIL module *
 0002:000e40f0       $unwind$?_Tidy@exception@std@@AEAAXXZ 00000001801080f0     * CIL library *:* CIL module *
 0002:000e40f0       $unwind$__GSHandlerCheckCommon 00000001801080f0     * CIL library *:* CIL module *
 0002:000e40f0       $unwind$euc_jp_mbtowc      00000001801080f0     * CIL library *:* CIL module *
 0002:000e40f0       $unwind$?WeakCallback@Iconv@?A0xe8528b84@@SAXAEBV?$WeakCallbackInfo@UIconv@?A0xe8528b84@@@Nan@@@Z 00000001801080f0     * CIL library *:* CIL module *
 0002:000e40f0       $unwind$_freeptd           00000001801080f0     * CIL library *:* CIL module *
 0002:000e40f0       $unwind$load_exe_hook      00000001801080f0     * CIL library *:* CIL module *
 0002:000e40f0       $unwind$wcscat_s           00000001801080f0     * CIL library *:* CIL module *
 0002:000e40f0       $unwind$wcscpy_s           00000001801080f0     * CIL library *:* CIL module *
 0002:000e40f0       $unwind$__raise_securityfailure 00000001801080f0     * CIL library *:* CIL module *
 0002:000e40f0       $unwind$__crtExitProcess   00000001801080f0     * CIL library *:* CIL module *
 0002:000e40f8       $unwind$?Initialize@Iconv@?A0xe8528b84@@SAXV?$Local@VObject@v8@@@v8@@@Z 00000001801080f8     * CIL library *:* CIL module *
 0002:000e4104       $unwind$?Make@Iconv@?A0xe8528b84@@SAXAEBV?$FunctionCallbackInfo@VValue@v8@@@Nan@@@Z 0000000180108104     * CIL library *:* CIL module *
 0002:000e4110       $chain$0$?Make@Iconv@?A0xe8528b84@@SAXAEBV?$FunctionCallbackInfo@VValue@v8@@@Nan@@@Z 0000000180108110     * CIL library *:* CIL module *
 0002:000e4124       $chain$1$?Make@Iconv@?A0xe8528b84@@SAXAEBV?$FunctionCallbackInfo@VValue@v8@@@Nan@@@Z 0000000180108124     * CIL library *:* CIL module *
 0002:000e4134       $unwind$?Convert@Iconv@?A0xe8528b84@@SAXAEBV?$FunctionCallbackInfo@VValue@v8@@@Nan@@@Z 0000000180108134     * CIL library *:* CIL module *
 0002:000e414c       $unwind$?invokeparameter@?$WeakCallbackInfo@UIconv@?A0xe8528b84@@@Nan@@CAXAEBV?$WeakCallbackInfo@V?$WeakCallbackInfo@UIconv@?A0xe8528b84@@@Nan@@@v8@@@Z 000000018010814c     * CIL library *:* CIL module *
 0002:000e414c       $unwind$euc_cn_wctomb      000000018010814c     * CIL library *:* CIL module *
 0002:000e414c       $unwind$_dosmaperr         000000018010814c     * CIL library *:* CIL module *
 0002:000e414c       $unwind$dec_hanyu_wctomb   000000018010814c     * CIL library *:* CIL module *
 0002:000e414c       $unwind$??_Gexception@std@@UEAAPEAXI@Z 000000018010814c     * CIL library *:* CIL module *
 0002:000e414c       $unwind$euc_kr_wctomb      000000018010814c     * CIL library *:* CIL module *
 0002:000e414c       $unwind$_initp_misc_cfltcvt_tab 000000018010814c     * CIL library *:* CIL module *
 0002:000e414c       $unwind$_lock              000000018010814c     * CIL library *:* CIL module *
 0002:000e414c       $unwind$_calloc_impl       000000018010814c     * CIL library *:* CIL module *
 0002:000e414c       $unwind$ces_big5_wctomb    000000018010814c     * CIL library *:* CIL module *
 0002:000e414c       $unwind$_fptostr           000000018010814c     * CIL library *:* CIL module *
 0002:000e414c       $unwind$dec_kanji_wctomb   000000018010814c     * CIL library *:* CIL module *
 0002:000e414c       $unwind$_updatetlocinfoEx_nolock 000000018010814c     * CIL library *:* CIL module *
 0002:000e414c       $unwind$_initterm_e        000000018010814c     * CIL library *:* CIL module *
 0002:000e414c       $unwind$??_Gtype_info@@UEAAPEAXI@Z 000000018010814c     * CIL library *:* CIL module *
 0002:000e414c       $unwind$_RTC_Terminate     000000018010814c     * CIL library *:* CIL module *
 0002:000e414c       $unwind$uc_to_mb_write_replacement 000000018010814c     * CIL library *:* CIL module *
 0002:000e414c       $unwind$_fclose_nolock     000000018010814c     * CIL library *:* CIL module *
 0002:000e414c       $unwind$??4exception@std@@QEAAAEAV01@AEBV01@@Z 000000018010814c     * CIL library *:* CIL module *
 0002:000e414c       $unwind$_close_nolock      000000018010814c     * CIL library *:* CIL module *
 0002:000e414c       $unwind$big5_2003_wctomb   000000018010814c     * CIL library *:* CIL module *
 0002:000e414c       $unwind$tcvn_mbtowc        000000018010814c     * CIL library *:* CIL module *
 0002:000e414c       $unwind$euc_tw_wctomb      000000018010814c     * CIL library *:* CIL module *
 0002:000e414c       $unwind$cp1258_mbtowc      000000018010814c     * CIL library *:* CIL module *
 0002:000e414c       $unwind$_RTC_Initialize    000000018010814c     * CIL library *:* CIL module *
 0002:000e414c       $unwind$__initstdio        000000018010814c     * CIL library *:* CIL module *
 0002:000e414c       $unwind$_getptd_noexit     000000018010814c     * CIL library *:* CIL module *
 0002:000e414c       $unwind$__freeCrtMemory    000000018010814c     * CIL library *:* CIL module *
 0002:000e414c       $unwind$??_Gbad_alloc@std@@UEAAPEAXI@Z 000000018010814c     * CIL library *:* CIL module *
 0002:000e4158       $unwind$jisx0208_wctomb    0000000180108158     * CIL library *:* CIL module *
 0002:000e4158       $unwind$cp1258_wctomb      0000000180108158     * CIL library *:* CIL module *
 0002:000e4158       $unwind$cp1255_wctomb      0000000180108158     * CIL library *:* CIL module *
 0002:000e4158       $unwind$utf8_mbtowc        0000000180108158     * CIL library *:* CIL module *
 0002:000e4158       $unwind$johab_hangul_mbtowc 0000000180108158     * CIL library *:* CIL module *
 0002:000e4160       $chain$0$utf8_mbtowc       0000000180108160     * CIL library *:* CIL module *
 0002:000e4174       $chain$2$utf8_mbtowc       0000000180108174     * CIL library *:* CIL module *
 0002:000e4188       $unwind$hkscs2004_wctomb   0000000180108188     * CIL library *:* CIL module *
 0002:000e4188       $unwind$gbkext_inv_wctomb  0000000180108188     * CIL library *:* CIL module *
 0002:000e4188       $unwind$utf32_mbtowc       0000000180108188     * CIL library *:* CIL module *
 0002:000e4188       $unwind$cp950ext_wctomb    0000000180108188     * CIL library *:* CIL module *
 0002:000e4188       $unwind$c99_mbtowc         0000000180108188     * CIL library *:* CIL module *
 0002:000e4188       $unwind$tcvn_wctomb        0000000180108188     * CIL library *:* CIL module *
 0002:000e4188       $unwind$hkscs2008_wctomb   0000000180108188     * CIL library *:* CIL module *
 0002:000e4188       $unwind$ucs2_mbtowc        0000000180108188     * CIL library *:* CIL module *
 0002:000e4188       $unwind$ucs4_mbtowc        0000000180108188     * CIL library *:* CIL module *
 0002:000e4188       $unwind$__dtold            0000000180108188     * CIL library *:* CIL module *
 0002:000e4188       $unwind$hkscs2001_wctomb   0000000180108188     * CIL library *:* CIL module *
 0002:000e4190       $unwind$gbk_mbtowc         0000000180108190     * CIL library *:* CIL module *
 0002:000e4190       $unwind$utf16_mbtowc       0000000180108190     * CIL library *:* CIL module *
 0002:000e4190       $unwind$cp1255_mbtowc      0000000180108190     * CIL library *:* CIL module *
 0002:000e419c       $unwind$utf7_mbtowc        000000018010819c     * CIL library *:* CIL module *
 0002:000e41b8       $unwind$johab_wctomb       00000001801081b8     * CIL library *:* CIL module *
 0002:000e41b8       $unwind$_ioterm            00000001801081b8     * CIL library *:* CIL module *
 0002:000e41b8       $unwind$_lseeki64_nolock   00000001801081b8     * CIL library *:* CIL module *
 0002:000e41b8       $unwind$cp949_wctomb       00000001801081b8     * CIL library *:* CIL module *
 0002:000e41b8       $unwind$_flush             00000001801081b8     * CIL library *:* CIL module *
 0002:000e41b8       $unwind$realloc            00000001801081b8     * CIL library *:* CIL module *
 0002:000e41b8       $unwind$cp950_wctomb       00000001801081b8     * CIL library *:* CIL module *
 0002:000e41b8       $unwind$gb18030_wctomb     00000001801081b8     * CIL library *:* CIL module *
 0002:000e41b8       $unwind$_mtinitlocks       00000001801081b8     * CIL library *:* CIL module *
 0002:000e41b8       $unwind$gb18030_mbtowc     00000001801081b8     * CIL library *:* CIL module *
 0002:000e41b8       $unwind$malloc             00000001801081b8     * CIL library *:* CIL module *
 0002:000e41b8       $unwind$gbk_wctomb         00000001801081b8     * CIL library *:* CIL module *
 0002:000e41b8       $unwind$_DllMainCRTStartup 00000001801081b8     * CIL library *:* CIL module *
 0002:000e41b8       $unwind$ces_gbk_wctomb     00000001801081b8     * CIL library *:* CIL module *
 0002:000e41b8       $unwind$utf7_wctomb        00000001801081b8     * CIL library *:* CIL module *
 0002:000e41b8       $unwind$cp936_mbtowc       00000001801081b8     * CIL library *:* CIL module *
 0002:000e41b8       $unwind$cp932_wctomb       00000001801081b8     * CIL library *:* CIL module *
 0002:000e41b8       $unwind$cp936_wctomb       00000001801081b8     * CIL library *:* CIL module *
 0002:000e41b8       $unwind$sjis_wctomb        00000001801081b8     * CIL library *:* CIL module *
 0002:000e41b8       $unwind$isoir165_mbtowc    00000001801081b8     * CIL library *:* CIL module *
 0002:000e41c8       $unwind$utf7_reset         00000001801081c8     * CIL library *:* CIL module *
 0002:000e41c8       $unwind$__initmbctable     00000001801081c8     * CIL library *:* CIL module *
 0002:000e41c8       $unwind$__endstdio         00000001801081c8     * CIL library *:* CIL module *
 0002:000e41c8       $unwind$abort              00000001801081c8     * CIL library *:* CIL module *
 0002:000e41c8       $unwind$_fileno            00000001801081c8     * CIL library *:* CIL module *
 0002:000e41c8       $unwind$__termconout       00000001801081c8     * CIL library *:* CIL module *
 0002:000e41c8       $unwind$iso2022_jp3_reset  00000001801081c8     * CIL library *:* CIL module *
 0002:000e41c8       $unwind$__crtInitializeCriticalSectionEx 00000001801081c8     * CIL library *:* CIL module *
 0002:000e41c8       $unwind$shift_jisx0213_mbtowc 00000001801081c8     * CIL library *:* CIL module *
 0002:000e41c8       $unwind$euc_tw_mbtowc      00000001801081c8     * CIL library *:* CIL module *
 0002:000e41c8       $unwind$_mtterm            00000001801081c8     * CIL library *:* CIL module *
 0002:000e41c8       $unwind$_get_osfhandle     00000001801081c8     * CIL library *:* CIL module *
 0002:000e41c8       $unwind$_set_error_mode    00000001801081c8     * CIL library *:* CIL module *
 0002:000e41c8       $unwind$dec_hanyu_mbtowc   00000001801081c8     * CIL library *:* CIL module *
 0002:000e41c8       $unwind$johab_mbtowc       00000001801081c8     * CIL library *:* CIL module *
 0002:000e41c8       $unwind$_isatty            00000001801081c8     * CIL library *:* CIL module *
 0002:000e41c8       $unwind$__crtDownlevelLocaleNameToLCID 00000001801081c8     * CIL library *:* CIL module *
 0002:000e41c8       $unwind$_invoke_watson     00000001801081c8     * CIL library *:* CIL module *
 0002:000e41c8       $unwind$atexit             00000001801081c8     * CIL library *:* CIL module *
 0002:000e41c8       $unwind$_stricmp           00000001801081c8     * CIL library *:* CIL module *
 0002:000e41c8       $unwind$euc_kr_mbtowc      00000001801081c8     * CIL library *:* CIL module *
 0002:000e41c8       $unwind$__GSHandlerCheck   00000001801081c8     * CIL library *:* CIL module *
 0002:000e41c8       $unwind$_msize             00000001801081c8     * CIL library *:* CIL module *
 0002:000e41c8       $unwind$_initp_eh_hooks    00000001801081c8     * CIL library *:* CIL module *
 0002:000e41c8       $unwind$_heap_init         00000001801081c8     * CIL library *:* CIL module *
 0002:000e41c8       $unwind$_errno             00000001801081c8     * CIL library *:* CIL module *
 0002:000e41c8       $unwind$__doserrno         00000001801081c8     * CIL library *:* CIL module *
 0002:000e41c8       $unwind$_FF_MSGBANNER      00000001801081c8     * CIL library *:* CIL module *
 0002:000e41d0       $unwind$java_mbtowc        00000001801081d0     * CIL library *:* CIL module *
 0002:000e41d8       $chain$1$java_mbtowc       00000001801081d8     * CIL library *:* CIL module *
 0002:000e41f0       $chain$3$java_mbtowc       00000001801081f0     * CIL library *:* CIL module *
 0002:000e41f0       $chain$5$java_mbtowc       00000001801081f0     * CIL library *:* CIL module *
 0002:000e41f0       $chain$7$java_mbtowc       00000001801081f0     * CIL library *:* CIL module *
 0002:000e4208       $chain$0$cp1255_wctomb     0000000180108208     * CIL library *:* CIL module *
 0002:000e421c       $chain$10$cp1255_wctomb    000000018010821c     * CIL library *:* CIL module *
 0002:000e421c       $chain$12$cp1255_wctomb    000000018010821c     * CIL library *:* CIL module *
 0002:000e421c       $chain$2$cp1255_wctomb     000000018010821c     * CIL library *:* CIL module *
 0002:000e421c       $chain$6$cp1255_wctomb     000000018010821c     * CIL library *:* CIL module *
 0002:000e421c       $chain$14$cp1255_wctomb    000000018010821c     * CIL library *:* CIL module *
 0002:000e421c       $chain$8$cp1255_wctomb     000000018010821c     * CIL library *:* CIL module *
 0002:000e421c       $chain$4$cp1255_wctomb     000000018010821c     * CIL library *:* CIL module *
 0002:000e4230       $chain$0$cp1258_wctomb     0000000180108230     * CIL library *:* CIL module *
 0002:000e4244       $chain$10$cp1258_wctomb    0000000180108244     * CIL library *:* CIL module *
 0002:000e4244       $chain$6$cp1258_wctomb     0000000180108244     * CIL library *:* CIL module *
 0002:000e4244       $chain$2$cp1258_wctomb     0000000180108244     * CIL library *:* CIL module *
 0002:000e4244       $chain$8$cp1258_wctomb     0000000180108244     * CIL library *:* CIL module *
 0002:000e4244       $chain$4$cp1258_wctomb     0000000180108244     * CIL library *:* CIL module *
 0002:000e4258       $chain$0$jisx0208_wctomb   0000000180108258     * CIL library *:* CIL module *
 0002:000e426c       $chain$2$jisx0208_wctomb   000000018010826c     * CIL library *:* CIL module *
 0002:000e4280       $chain$3$jisx0208_wctomb   0000000180108280     * CIL library *:* CIL module *
 0002:000e4290       $unwind$isoir165_wctomb    0000000180108290     * CIL library *:* CIL module *
 0002:000e42a0       $chain$0$johab_hangul_mbtowc 00000001801082a0     * CIL library *:* CIL module *
 0002:000e42b4       $chain$4$johab_hangul_mbtowc 00000001801082b4     * CIL library *:* CIL module *
 0002:000e42b4       $chain$2$johab_hangul_mbtowc 00000001801082b4     * CIL library *:* CIL module *
 0002:000e42c8       $chain$5$johab_hangul_mbtowc 00000001801082c8     * CIL library *:* CIL module *
 0002:000e42d8       $unwind$johab_hangul_decompose 00000001801082d8     * CIL library *:* CIL module *
 0002:000e42d8       $unwind$__free_lconv_num   00000001801082d8     * CIL library *:* CIL module *
 0002:000e42d8       $unwind$free               00000001801082d8     * CIL library *:* CIL module *
 0002:000e42e0       $unwind$euc_jp_wctomb      00000001801082e0     * CIL library *:* CIL module *
 0002:000e42f4       $unwind$shift_jisx0213_wctomb 00000001801082f4     * CIL library *:* CIL module *
 0002:000e42f4       $unwind$?setSBCS@@YAXPEAUthreadmbcinfostruct@@@Z 00000001801082f4     * CIL library *:* CIL module *
 0002:000e42f4       $unwind$big5hkscs1999_mbtowc 00000001801082f4     * CIL library *:* CIL module *
 0002:000e42f4       $unwind$euc_jisx0213_wctomb 00000001801082f4     * CIL library *:* CIL module *
 0002:000e42f4       $unwind$big5hkscs2001_mbtowc 00000001801082f4     * CIL library *:* CIL module *
 0002:000e42f4       $unwind$big5hkscs2004_mbtowc 00000001801082f4     * CIL library *:* CIL module *
 0002:000e42f4       $unwind$big5hkscs2008_mbtowc 00000001801082f4     * CIL library *:* CIL module *
 0002:000e42f4       $unwind$iso2022_jp_mbtowc  00000001801082f4     * CIL library *:* CIL module *
 0002:000e42f4       $unwind$_mtdeletelocks     00000001801082f4     * CIL library *:* CIL module *
 0002:000e42f4       $unwind$__freetlocinfo     00000001801082f4     * CIL library *:* CIL module *
 0002:000e42f4       $unwind$_XcptFilter        00000001801082f4     * CIL library *:* CIL module *
 0002:000e42f4       $unwind$_initterm          00000001801082f4     * CIL library *:* CIL module *
 0002:000e4308       $unwind$iso2022_jp_wctomb  0000000180108308     * CIL library *:* CIL module *
 0002:000e4308       $unwind$hz_wctomb          0000000180108308     * CIL library *:* CIL module *
 0002:000e4318       $chain$0$iso2022_jp_wctomb 0000000180108318     * CIL library *:* CIL module *
 0002:000e432c       $chain$2$iso2022_jp_wctomb 000000018010832c     * CIL library *:* CIL module *
 0002:000e4340       $unwind$iso2022_jp1_mbtowc 0000000180108340     * CIL library *:* CIL module *
 0002:000e4358       $unwind$iso2022_jp1_wctomb 0000000180108358     * CIL library *:* CIL module *
 0002:000e436c       $chain$0$iso2022_jp1_wctomb 000000018010836c     * CIL library *:* CIL module *
 0002:000e4380       $chain$1$iso2022_jp1_wctomb 0000000180108380     * CIL library *:* CIL module *
 0002:000e4390       $chain$2$iso2022_jp1_wctomb 0000000180108390     * CIL library *:* CIL module *
 0002:000e43a4       $unwind$iso2022_jp2_mbtowc 00000001801083a4     * CIL library *:* CIL module *
 0002:000e43bc       $unwind$iso2022_jp2_wctomb 00000001801083bc     * CIL library *:* CIL module *
 0002:000e43d0       $chain$0$iso2022_jp2_wctomb 00000001801083d0     * CIL library *:* CIL module *
 0002:000e43e4       $chain$2$iso2022_jp2_wctomb 00000001801083e4     * CIL library *:* CIL module *
 0002:000e43f8       $chain$3$iso2022_jp2_wctomb 00000001801083f8     * CIL library *:* CIL module *
 0002:000e4408       $unwind$gb18030uni_mbtowc  0000000180108408     * CIL library *:* CIL module *
 0002:000e4408       $unwind$gb18030uni_wctomb  0000000180108408     * CIL library *:* CIL module *
 0002:000e4410       $chain$0$gb18030uni_mbtowc 0000000180108410     * CIL library *:* CIL module *
 0002:000e4424       $chain$2$gb18030uni_mbtowc 0000000180108424     * CIL library *:* CIL module *
 0002:000e4438       $chain$3$gb18030uni_mbtowc 0000000180108438     * CIL library *:* CIL module *
 0002:000e4448       $chain$0$gb18030uni_wctomb 0000000180108448     * CIL library *:* CIL module *
 0002:000e445c       $chain$2$gb18030uni_wctomb 000000018010845c     * CIL library *:* CIL module *
 0002:000e4470       $chain$3$gb18030uni_wctomb 0000000180108470     * CIL library *:* CIL module *
 0002:000e4480       $unwind$iso2022_cn_mbtowc  0000000180108480     * CIL library *:* CIL module *
 0002:000e4498       $unwind$iso2022_cn_wctomb  0000000180108498     * CIL library *:* CIL module *
 0002:000e44b0       $unwind$iso2022_cn_ext_mbtowc 00000001801084b0     * CIL library *:* CIL module *
 0002:000e44c8       $chain$0$iso2022_cn_ext_mbtowc 00000001801084c8     * CIL library *:* CIL module *
 0002:000e44dc       $chain$1$iso2022_cn_ext_mbtowc 00000001801084dc     * CIL library *:* CIL module *
 0002:000e44ec       $unwind$iso2022_cn_ext_wctomb 00000001801084ec     * CIL library *:* CIL module *
 0002:000e4504       $unwind$hz_mbtowc          0000000180108504     * CIL library *:* CIL module *
 0002:000e4518       $chain$0$hz_wctomb         0000000180108518     * CIL library *:* CIL module *
 0002:000e452c       $chain$2$hz_wctomb         000000018010852c     * CIL library *:* CIL module *
 0002:000e4540       $unwind$cp950_mbtowc       0000000180108540     * CIL library *:* CIL module *
 0002:000e454c       $chain$3$cp950_mbtowc      000000018010854c     * CIL library *:* CIL module *
 0002:000e456c       $chain$5$cp950_mbtowc      000000018010856c     * CIL library *:* CIL module *
 0002:000e458c       $unwind$big5hkscs2008_wctomb 000000018010858c     * CIL library *:* CIL module *
 0002:000e458c       $unwind$big5hkscs2001_wctomb 000000018010858c     * CIL library *:* CIL module *
 0002:000e458c       $unwind$big5hkscs1999_wctomb 000000018010858c     * CIL library *:* CIL module *
 0002:000e458c       $unwind$big5hkscs2004_wctomb 000000018010858c     * CIL library *:* CIL module *
 0002:000e45a4       $unwind$cp949_mbtowc       00000001801085a4     * CIL library *:* CIL module *
 0002:000e45b0       $chain$0$cp949_mbtowc      00000001801085b0     * CIL library *:* CIL module *
 0002:000e45c4       $chain$8$cp949_mbtowc      00000001801085c4     * CIL library *:* CIL module *
 0002:000e45c4       $chain$6$cp949_mbtowc      00000001801085c4     * CIL library *:* CIL module *
 0002:000e45c4       $chain$4$cp949_mbtowc      00000001801085c4     * CIL library *:* CIL module *
 0002:000e45c4       $chain$2$cp949_mbtowc      00000001801085c4     * CIL library *:* CIL module *
 0002:000e45d8       $unwind$iso2022_kr_mbtowc  00000001801085d8     * CIL library *:* CIL module *
 0002:000e45f0       $unwind$iso2022_kr_wctomb  00000001801085f0     * CIL library *:* CIL module *
 0002:000e4604       $unwind$iso2022_jp3_mbtowc 0000000180108604     * CIL library *:* CIL module *
 0002:000e4618       $chain$0$iso2022_jp3_mbtowc 0000000180108618     * CIL library *:* CIL module *
 0002:000e462c       $chain$1$iso2022_jp3_mbtowc 000000018010862c     * CIL library *:* CIL module *
 0002:000e462c       $chain$3$iso2022_jp3_mbtowc 000000018010862c     * CIL library *:* CIL module *
 0002:000e463c       $chain$2$iso2022_jp3_mbtowc 000000018010863c     * CIL library *:* CIL module *
 0002:000e4650       $unwind$iso2022_jp3_wctomb 0000000180108650     * CIL library *:* CIL module *
 0002:000e466c       $unwind$big5_2003_mbtowc   000000018010866c     * CIL library *:* CIL module *
 0002:000e4680       $unwind$_cftof_l           0000000180108680     * CIL library *:* CIL module *
 0002:000e4680       $unwind$unicode_transliterate 0000000180108680     * CIL library *:* CIL module *
 0002:000e4698       $unwind$mb_to_uc_write_replacement 0000000180108698     * CIL library *:* CIL module *
 0002:000e46a4       $chain$4$mb_to_uc_write_replacement 00000001801086a4     * CIL library *:* CIL module *
 0002:000e46c8       $chain$5$mb_to_uc_write_replacement 00000001801086c8     * CIL library *:* CIL module *
 0002:000e46d8       $chain$6$mb_to_uc_write_replacement 00000001801086d8     * CIL library *:* CIL module *
 0002:000e46fc       $unwind$unicode_loop_convert 00000001801086fc     * CIL library *:* CIL module *
 0002:000e4714       $unwind$unicode_loop_reset 0000000180108714     * CIL library *:* CIL module *
 0002:000e4720       $chain$4$unicode_loop_reset 0000000180108720     * CIL library *:* CIL module *
 0002:000e4744       $chain$6$unicode_loop_reset 0000000180108744     * CIL library *:* CIL module *
 0002:000e4744       $chain$8$unicode_loop_reset 0000000180108744     * CIL library *:* CIL module *
 0002:000e4768       $chain$7$unicode_loop_reset 0000000180108768     * CIL library *:* CIL module *
 0002:000e4778       $unwind$libiconv_open      0000000180108778     * CIL library *:* CIL module *
 0002:000e47a4       xdata                      00000001801087a4     node:node.exe
 0002:000e47b0       $xdatasym                  00000001801087b0     LIBCMT:amdsecgs.obj
 0002:000e47b8       $xdatasym                  00000001801087b8     LIBCMT:memcpy.obj
 0002:000e47bc       $unwind$_onexit            00000001801087bc     LIBCMT:onexit.obj
 0002:000e47ec       $unwind$_stricmp_l         00000001801087ec     LIBCMT:stricmp.obj
 0002:000e47ec       $unwind$?x_ismbbtype_l@@YAHPEAUlocaleinfo_struct@@IHH@Z 00000001801087ec     LIBCMT:stricmp.obj
 0002:000e47fc       $unwind$_CRT_INIT          00000001801087fc     LIBCMT:dllcrt0.obj
 0002:000e481c       $unwind$__DllMainCRTStartup 000000018010881c     LIBCMT:dllcrt0.obj
 0002:000e4848       $xdatasym                  0000000180108848     LIBCMT:strlen.obj
 0002:000e484c       $unwind$_CxxThrowException 000000018010884c     LIBCMT:throw.obj
 0002:000e485c       $unwind$?_Copy_str@exception@std@@AEAAXPEBD@Z 000000018010885c     LIBCMT:stdexcpt.obj
 0002:000e486c       $unwind$__report_gsfailure 000000018010886c     LIBCMT:gs_report.obj
 0002:000e486c       $unwind$_putwch_nolock     000000018010886c     LIBCMT:gs_report.obj
 0002:000e4874       $unwind$__isa_available_init 0000000180108874     LIBCMT:cpu_disp.obj
 0002:000e4888       $unwind$_call_reportfault  0000000180108888     LIBCMT:invarg.obj
 0002:000e48a8       $unwind$_invalid_parameter 00000001801088a8     LIBCMT:invarg.obj
 0002:000e48a8       $unwind$_setenvp           00000001801088a8     LIBCMT:invarg.obj
 0002:000e48bc       $unwind$_freefls           00000001801088bc     LIBCMT:tidtable.obj
 0002:000e48f0       $unwind$_onexit$fin$0      00000001801088f0     LIBCMT:tidtable.obj
 0002:000e48f0       $unwind$raise$fin$0        00000001801088f0     LIBCMT:tidtable.obj
 0002:000e48f0       $unwind$?fin$0@?0??_Type_info_dtor@type_info@@CAXPEAV1@@Z@4HA 00000001801088f0     LIBCMT:tidtable.obj
 0002:000e48f0       $unwind$__updatetlocinfo$fin$0 00000001801088f0     LIBCMT:tidtable.obj
 0002:000e48f0       $unwind$__updatetmbcinfo$fin$0 00000001801088f0     LIBCMT:tidtable.obj
 0002:000e48f0       $unwind$_locterm$fin$0     00000001801088f0     LIBCMT:tidtable.obj
 0002:000e48f0       $unwind$doexit$fin$0       00000001801088f0     LIBCMT:tidtable.obj
 0002:000e48f0       $unwind$_setmbcp$fin$0     00000001801088f0     LIBCMT:tidtable.obj
 0002:000e48f0       $unwind$__DestructExceptionObject$filt$0 00000001801088f0     LIBCMT:tidtable.obj
 0002:000e48f0       $unwind$_mtinitlocknum$fin$0 00000001801088f0     LIBCMT:tidtable.obj
 0002:000e48f0       $unwind$_CRT_INIT$fin$0    00000001801088f0     LIBCMT:tidtable.obj
 0002:000e48f0       $unwind$_freefls$fin$0     00000001801088f0     LIBCMT:tidtable.obj
 0002:000e48f0       $unwind$_write$fin$0       00000001801088f0     LIBCMT:tidtable.obj
 0002:000e48f0       $unwind$_initptd$fin$0     00000001801088f0     LIBCMT:tidtable.obj
 0002:000e48f0       $unwind$_initptd$fin$1     00000001801088f0     LIBCMT:tidtable.obj
 0002:000e48f0       $unwind$__lock_fhandle$fin$0 00000001801088f0     LIBCMT:tidtable.obj
 0002:000e48f0       $unwind$_freefls$fin$1     00000001801088f0     LIBCMT:tidtable.obj
 0002:000e48f0       $unwind$_fcloseall$fin$0   00000001801088f0     LIBCMT:tidtable.obj
 0002:000e48f0       $unwind$_ioinit$fin$0      00000001801088f0     LIBCMT:tidtable.obj
 0002:000e48f0       $unwind$fclose$fin$0       00000001801088f0     LIBCMT:tidtable.obj
 0002:000e48f0       $unwind$flsall$fin$1       00000001801088f0     LIBCMT:tidtable.obj
 0002:000e48f0       $unwind$_commit$fin$0      00000001801088f0     LIBCMT:tidtable.obj
 0002:000e48f0       $unwind$flsall$fin$0       00000001801088f0     LIBCMT:tidtable.obj
 0002:000e48f0       $unwind$_IsNonwritableInCurrentImage$filt$0 00000001801088f0     LIBCMT:tidtable.obj
 0002:000e48f0       $unwind$_close$fin$0       00000001801088f0     LIBCMT:tidtable.obj
 0002:000e48f0       $unwind$__DllMainCRTStartup$filt$0 00000001801088f0     LIBCMT:tidtable.obj
 0002:000e48f8       $unwind$_initptd           00000001801088f8     LIBCMT:tidtable.obj
 0002:000e492c       $unwind$doexit             000000018010892c     LIBCMT:crt0dat.obj
 0002:000e495c       $unwind$flsall             000000018010895c     LIBCMT:fflush.obj
 0002:000e499c       $unwind$raise              000000018010899c     LIBCMT:winsig.obj
 0002:000e49cc       $unwind$__crtMessageBoxW   00000001801089cc     LIBCMT:crtmboxw.obj
 0002:000e49e8       $unwind$_NMSG_WRITE        00000001801089e8     LIBCMT:crt0msg.obj
 0002:000e4a0c       $unwind$_malloc_crt        0000000180108a0c     LIBCMT:crtheap.obj
 0002:000e4a0c       $unwind$_realloc_crt       0000000180108a0c     LIBCMT:crtheap.obj
 0002:000e4a0c       $unwind$GetTableIndexFromLocaleName 0000000180108a0c     LIBCMT:crtheap.obj
 0002:000e4a0c       $unwind$_calloc_crt        0000000180108a0c     LIBCMT:crtheap.obj
 0002:000e4a24       $unwind$__C_specific_handler 0000000180108a24     LIBCMT:chandler.obj
 0002:000e4a40       $unwind$__updatetlocinfo   0000000180108a40     LIBCMT:localref.obj
 0002:000e4a60       $unwind$__updatetmbcinfo   0000000180108a60     LIBCMT:mbctype.obj
 0002:000e4a84       $unwind$_setmbcp           0000000180108a84     LIBCMT:mbctype.obj
 0002:000e4ab4       $unwind$_setmbcp_nolock    0000000180108ab4     LIBCMT:mbctype.obj
 0002:000e4ad4       $unwind$?setSBUpLow@@YAXPEAUthreadmbcinfostruct@@@Z 0000000180108ad4     LIBCMT:mbctype.obj
 0002:000e4af0       $unwind$_tolower_l         0000000180108af0     LIBCMT:tolower.obj
 0002:000e4b00       $unwind$_locterm           0000000180108b00     LIBCMT:wsetloca.obj
 0002:000e4b20       $unwind$_ioinit            0000000180108b20     LIBCMT:ioinit.obj
 0002:000e4b68       $unwind$parse_cmdline      0000000180108b68     LIBCMT:stdargv.obj
 0002:000e4b84       $unwind$__security_init_cookie 0000000180108b84     LIBCMT:gs_support.obj
 0002:000e4b90       $unwind$__crtCaptureCurrentContext 0000000180108b90     LIBCMT:winapisupp.obj
 0002:000e4b9c       $unwind$__crtCapturePreviousContext 0000000180108b9c     LIBCMT:winapisupp.obj
 0002:000e4ba8       $unwind$__DestructExceptionObject 0000000180108ba8     LIBCMT:frame.obj
 0002:000e4bc8       $unwind$?terminate@@YAXXZ  0000000180108bc8     LIBCMT:hooks.obj
 0002:000e4be8       $xdatasym                  0000000180108be8     LIBCMT:strcmp.obj
 0002:000e4bec       $unwind$?_Type_info_dtor@type_info@@CAXPEAV1@@Z 0000000180108bec     LIBCMT:typname.obj
 0002:000e4c0c       $unwind$_invalid_parameter_noinfo 0000000180108c0c     LIBCMT:cvt.obj
 0002:000e4c0c       $unwind$_cfltcvt_l         0000000180108c0c     LIBCMT:cvt.obj
 0002:000e4c14       $unwind$_fassign_l         0000000180108c14     LIBCMT:cvt.obj
 0002:000e4c1c       $unwind$_cftoe2_l          0000000180108c1c     LIBCMT:cvt.obj
 0002:000e4c38       $unwind$_cftoe_l           0000000180108c38     LIBCMT:cvt.obj
 0002:000e4c50       $unwind$_cftoa_l           0000000180108c50     LIBCMT:cvt.obj
 0002:000e4c6c       $unwind$_cftof2_l          0000000180108c6c     LIBCMT:cvt.obj
 0002:000e4c6c       $unwind$__crtGetEnvironmentStringsA 0000000180108c6c     LIBCMT:cvt.obj
 0002:000e4c84       $unwind$_cftog_l           0000000180108c84     LIBCMT:cvt.obj
 0002:000e4ca0       $xdatasym                  0000000180108ca0     LIBCMT:memset.obj
 0002:000e4ca4       $unwind$_mtinitlocknum     0000000180108ca4     LIBCMT:mlock.obj
 0002:000e4ccc       $unwind$_IsNonwritableInCurrentImage 0000000180108ccc     LIBCMT:pesect.obj
 0002:000e4cf0       $unwind$_fcloseall         0000000180108cf0     LIBCMT:closeall.obj
 0002:000e4d18       $unwind$_commit            0000000180108d18     LIBCMT:commit.obj
 0002:000e4d40       $unwind$_write             0000000180108d40     LIBCMT:write.obj
 0002:000e4d6c       $unwind$_write_nolock      0000000180108d6c     LIBCMT:write.obj
 0002:000e4d90       $xdatasym                  0000000180108d90     LIBCMT:jmpuwind.obj
 0002:000e4da4       $unwind$__crtLCMapStringEx 0000000180108da4     LIBCMT:winapinls.obj
 0002:000e4db8       $xdatasym                  0000000180108db8     LIBCMT:fpsr.obj
 0002:000e4dc0       $unwind$__free_lc_time     0000000180108dc0     LIBCMT:initmon.obj
 0002:000e4dc0       $unwind$__free_lconv_mon   0000000180108dc0     LIBCMT:initmon.obj
 0002:000e4dc8       $unwind$__crtLCMapStringA  0000000180108dc8     LIBCMT:a_map.obj
 0002:000e4dd8       $unwind$?__crtLCMapStringA_stat@@YAHPEAUlocaleinfo_struct@@PEB_WKPEBDHPEADHHH@Z 0000000180108dd8     LIBCMT:a_map.obj
 0002:000e4e00       $unwind$__crtGetStringTypeA 0000000180108e00     LIBCMT:a_str.obj
 0002:000e4e10       $unwind$?__crtGetStringTypeA_stat@@YAHPEAUlocaleinfo_struct@@KPEBDHPEAGHH@Z 0000000180108e10     LIBCMT:a_str.obj
 0002:000e4e38       $unwind$_isctype_l         0000000180108e38     LIBCMT:isctype.obj
 0002:000e4e48       $unwind$isdigit            0000000180108e48     LIBCMT:_wctype.obj
 0002:000e4e48       $unwind$_cropzeros_l       0000000180108e48     LIBCMT:_wctype.obj
 0002:000e4e48       $unwind$??2@YAPEAX_K@Z     0000000180108e48     LIBCMT:_wctype.obj
 0002:000e4e48       $unwind$isleadbyte         0000000180108e48     LIBCMT:_wctype.obj
 0002:000e4e48       $unwind$_isleadbyte_l      0000000180108e48     LIBCMT:_wctype.obj
 0002:000e4e48       $unwind$?getSystemCP@@YAHH@Z 0000000180108e48     LIBCMT:_wctype.obj
 0002:000e4e48       $unwind$_forcdecpt_l       0000000180108e48     LIBCMT:_wctype.obj
 0002:000e4e50       $xdatasym                  0000000180108e50     LIBCMT:memcmp.obj
 0002:000e4e58       $xdatasym                  0000000180108e58     LIBCMT:handlers.obj
 0002:000e4e60       $unwind$strrchr            0000000180108e60     LIBCMT:strrchr.obj
 0002:000e4e68       $unwind$_atodbl_l          0000000180108e68     LIBCMT:atodbl.obj
 0002:000e4e7c       $unwind$__crt_atoflt_l     0000000180108e7c     LIBCMT:atodbl.obj
 0002:000e4e90       $unwind$_fltout2           0000000180108e90     LIBCMT:cfout.obj
 0002:000e4ea8       $unwind$fclose             0000000180108ea8     LIBCMT:fclose.obj
 0002:000e4ecc       $unwind$_free_osfhnd       0000000180108ecc     LIBCMT:osfinfo.obj
 0002:000e4edc       $unwind$__lock_fhandle     0000000180108edc     LIBCMT:osfinfo.obj
 0002:000e4f08       $unwind$_mbtowc_l          0000000180108f08     LIBCMT:mbtowc.obj
 0002:000e4f20       $xdatasym                  0000000180108f20     LIBCMT:chkstk.obj
 0002:000e4f28       $unwind$_ld12tof           0000000180108f28     LIBCMT:intrncvt.obj
 0002:000e4f28       $unwind$_ld12tod           0000000180108f28     LIBCMT:intrncvt.obj
 0002:000e4f4c       $unwind$__strgtold12_l     0000000180108f4c     LIBCMT:strgtold.obj
 0002:000e4f70       $unwind$$I10_OUTPUT        0000000180108f70     LIBCMT:x10fout.obj
 0002:000e4f94       $unwind$_close             0000000180108f94     LIBCMT:close.obj
 0002:000e4fbc       $unwind$__initconout       0000000180108fbc     LIBCMT:initcon.obj
 0002:000e4fbc       $unwind$_cfltcvt           0000000180108fbc     LIBCMT:initcon.obj
 0002:000e4fc4       $unwind$__mtold12          0000000180108fc4     LIBCMT:mantold.obj
 0002:000e4fdc       $unwind$__delayLoadHelper2 0000000180108fdc     DelayImp:delayhlp.obj
 0002:000e5c80       .edata                     0000000180109c80     iconv.exp
 0002:000e5ca8       rgpv                       0000000180109ca8     iconv.exp
 0002:000e5cac       rgszName                   0000000180109cac     iconv.exp
 0002:000e5cb0       rgwOrd                     0000000180109cb0     iconv.exp
 0002:000e5cb2       szName                     0000000180109cb2     iconv.exp
 0002:000e5cbd       $N00001                    0000000180109cbd     iconv.exp
 0002:000e5f3c       .idata$6                   0000000180109f3c     kernel32:KERNEL32.dll
 0003:00000000       errtable                   000000018010b000     LIBCMT:dosmap.obj
 0003:00000168       ErrnoNoMem                 000000018010b168     LIBCMT:dosmap.obj
 0003:0000016c       DoserrorNoMem              000000018010b16c     LIBCMT:dosmap.obj
 0003:00000170       _assertstring              000000018010b170     LIBCMT:wassert.obj
 0003:000001c0       dotdotdot                  000000018010b1c0     LIBCMT:wassert.obj
 0003:000001c8       newline                    000000018010b1c8     LIBCMT:wassert.obj
 0003:000001d0       dblnewline                 000000018010b1d0     LIBCMT:wassert.obj
 0003:000005d0       ?dazSupported@?1??_ctrlfp@@9@9 000000018010b5d0     LIBCMT:fpctrl.obj
 0003:00000a18       __rgctypeflag              000000018010ba18     LIBCMT:mbctype.obj
 0003:00000a20       __rgcode_page_info         000000018010ba20     LIBCMT:mbctype.obj
 0003:00000f50       _ctype_loc_style           000000018010bf50     LIBCMT:wsetloca.obj
 0003:00000fb8       ?isPackaged@?1??__crtIsPackagedApp@@9@9 000000018010bfb8     LIBCMT:winapisupp.obj
 0003:00001010       _locktable                 000000018010c010     LIBCMT:mlock.obj
 0003:00001250       ?_names@?1??_get_fname@@9@9 000000018010c250     LIBCMT:fpexcept.obj
 0003:00001528       DoubleFormat               000000018010c528     LIBCMT:intrncvt.obj
 0003:00001540       FloatFormat                000000018010c540     LIBCMT:intrncvt.obj
 0003:00001830       _module                    000000018010c830     * CIL library *:* CIL module *
 0003:00001a28       allocator_arg              000000018010ca28     libcpmt:syserror.obj
 0003:00001a29       piecewise_construct        000000018010ca29     libcpmt:syserror.obj
 0003:00001a2a       _Tuple_alloc               000000018010ca2a     libcpmt:xthrow.obj
 0003:00001a2b       ignore                     000000018010ca2b     libcpmt:xthrow.obj
 0003:00001a2c       allocator_arg              000000018010ca2c     libcpmt:xthrow.obj
 0003:00001a2d       piecewise_construct        000000018010ca2d     libcpmt:xthrow.obj
 0003:00001a30       __proc_attached            000000018010ca30     LIBCMT:dllcrt0.obj
 0003:00001a50       GS_ExceptionRecord         000000018010ca50     LIBCMT:gs_report.obj
 0003:00001af0       GS_ContextRecord           000000018010caf0     LIBCMT:gs_report.obj
 0003:00001fc0       DebuggerWasPresent         000000018010cfc0     LIBCMT:gs_report.obj
 0003:00002030       ctrlc_action               000000018010d030     LIBCMT:winsig.obj
 0003:00002038       ctrlbreak_action           000000018010d038     LIBCMT:winsig.obj
 0003:00002040       abort_action               000000018010d040     LIBCMT:winsig.obj
 0003:00002048       term_action                000000018010d048     LIBCMT:winsig.obj
 0003:00002050       ConsoleCtrlHandler_Installed 000000018010d050     LIBCMT:winsig.obj
 0003:00002058       ?pfnMessageBox@?1??__crtMessageBoxW@@9@9 000000018010d058     LIBCMT:crtmboxw.obj
 0003:00002060       ?pfnGetActiveWindow@?1??__crtMessageBoxW@@9@9 000000018010d060     LIBCMT:crtmboxw.obj
 0003:00002068       ?pfnGetLastActivePopup@?1??__crtMessageBoxW@@9@9 000000018010d068     LIBCMT:crtmboxw.obj
 0003:00002070       ?pfnGetProcessWindowStation@?1??__crtMessageBoxW@@9@9 000000018010d070     LIBCMT:crtmboxw.obj
 0003:00002078       ?pfnGetUserObjectInformation@?1??__crtMessageBoxW@@9@9 000000018010d078     LIBCMT:crtmboxw.obj
 0003:00002090       ?outmsg@?8??_NMSG_WRITE@@9@9 000000018010d090     LIBCMT:crt0msg.obj
 0003:00002700       fSystemSet                 000000018010d700     LIBCMT:mbctype.obj
 0003:00002910       ?_pgmname@?1??_setargv@@9@9 000000018010d910     LIBCMT:stdargv.obj
 0003:00002a28       __type_info_root_node      000000018010da28     LIBCMT:typname.obj
 0003:00002a40       lclcritsects               000000018010da40     LIBCMT:mlock.obj
 0003:00002c70       g_pfnRtlGenRandom          000000018010dc70     LIBCMT:rand_s.obj
 0003:00002c88       __crtCallProc              000000018010dc88     LIBCMT:winapinls.obj
 0003:00002ce0       heap                       000000018010dce0     LIBCMT:undname.obj
 0003:00002d10       __enable_percent_n         000000018010dd10     LIBCMT:printf.obj
 0003:00002d48       allocator_arg              000000018010dd48     * CIL library *:* CIL module *
 0003:00002d49       piecewise_construct        000000018010dd49     * CIL library *:* CIL module *
 0004:00000000       $pdata$?FunctionCallbackWrapper@imp@Nan@@YAXAEBV?$FunctionCallbackInfo@VValue@v8@@@v8@@@Z 000000018010f000     * CIL library *:* CIL module *
 0004:0000000c       $pdata$?New@?$Factory@VFunctionTemplate@v8@@@imp@Nan@@SA?AV?$Local@VFunctionTemplate@v8@@@v8@@P6AXAEBV?$FunctionCallbackInfo@VValue@v8@@@3@@ZV?$Local@VValue@v8@@@5@V?$Local@VSignature@v8@@@5@@Z 000000018010f00c     * CIL library *:* CIL module *
 0004:00000018       $pdata$0$?New@?$Factory@VFunctionTemplate@v8@@@imp@Nan@@SA?AV?$Local@VFunctionTemplate@v8@@@v8@@P6AXAEBV?$FunctionCallbackInfo@VValue@v8@@@3@@ZV?$Local@VValue@v8@@@5@V?$Local@VSignature@v8@@@5@@Z 000000018010f018     * CIL library *:* CIL module *
 0004:00000024       $pdata$1$?New@?$Factory@VFunctionTemplate@v8@@@imp@Nan@@SA?AV?$Local@VFunctionTemplate@v8@@@v8@@P6AXAEBV?$FunctionCallbackInfo@VValue@v8@@@3@@ZV?$Local@VValue@v8@@@5@V?$Local@VSignature@v8@@@5@@Z 000000018010f024     * CIL library *:* CIL module *
 0004:00000030       $pdata$?WeakCallback@Iconv@?A0xe8528b84@@SAXAEBV?$WeakCallbackInfo@UIconv@?A0xe8528b84@@@Nan@@@Z 000000018010f030     * CIL library *:* CIL module *
 0004:0000003c       $pdata$?Initialize@Iconv@?A0xe8528b84@@SAXV?$Local@VObject@v8@@@v8@@@Z 000000018010f03c     * CIL library *:* CIL module *
 0004:00000048       $pdata$?Make@Iconv@?A0xe8528b84@@SAXAEBV?$FunctionCallbackInfo@VValue@v8@@@Nan@@@Z 000000018010f048     * CIL library *:* CIL module *
 0004:00000054       $pdata$0$?Make@Iconv@?A0xe8528b84@@SAXAEBV?$FunctionCallbackInfo@VValue@v8@@@Nan@@@Z 000000018010f054     * CIL library *:* CIL module *
 0004:00000060       $pdata$1$?Make@Iconv@?A0xe8528b84@@SAXAEBV?$FunctionCallbackInfo@VValue@v8@@@Nan@@@Z 000000018010f060     * CIL library *:* CIL module *
 0004:0000006c       $pdata$?Convert@Iconv@?A0xe8528b84@@SAXAEBV?$FunctionCallbackInfo@VValue@v8@@@Nan@@@Z 000000018010f06c     * CIL library *:* CIL module *
 0004:00000078       $pdata$?invokeparameter@?$WeakCallbackInfo@UIconv@?A0xe8528b84@@@Nan@@CAXAEBV?$WeakCallbackInfo@V?$WeakCallbackInfo@UIconv@?A0xe8528b84@@@Nan@@@v8@@@Z 000000018010f078     * CIL library *:* CIL module *
 0004:00000084       $pdata$utf8_mbtowc         000000018010f084     * CIL library *:* CIL module *
 0004:00000090       $pdata$0$utf8_mbtowc       000000018010f090     * CIL library *:* CIL module *
 0004:0000009c       $pdata$2$utf8_mbtowc       000000018010f09c     * CIL library *:* CIL module *
 0004:000000a8       $pdata$ucs2_mbtowc         000000018010f0a8     * CIL library *:* CIL module *
 0004:000000b4       $pdata$ucs4_mbtowc         000000018010f0b4     * CIL library *:* CIL module *
 0004:000000c0       $pdata$utf16_mbtowc        000000018010f0c0     * CIL library *:* CIL module *
 0004:000000cc       $pdata$utf32_mbtowc        000000018010f0cc     * CIL library *:* CIL module *
 0004:000000d8       $pdata$utf7_mbtowc         000000018010f0d8     * CIL library *:* CIL module *
 0004:000000e4       $pdata$utf7_wctomb         000000018010f0e4     * CIL library *:* CIL module *
 0004:000000f0       $pdata$utf7_reset          000000018010f0f0     * CIL library *:* CIL module *
 0004:000000fc       $pdata$c99_mbtowc          000000018010f0fc     * CIL library *:* CIL module *
 0004:00000108       $pdata$java_mbtowc         000000018010f108     * CIL library *:* CIL module *
 0004:00000114       $pdata$1$java_mbtowc       000000018010f114     * CIL library *:* CIL module *
 0004:00000120       $pdata$3$java_mbtowc       000000018010f120     * CIL library *:* CIL module *
 0004:0000012c       $pdata$5$java_mbtowc       000000018010f12c     * CIL library *:* CIL module *
 0004:00000138       $pdata$7$java_mbtowc       000000018010f138     * CIL library *:* CIL module *
 0004:00000144       $pdata$cp1255_mbtowc       000000018010f144     * CIL library *:* CIL module *
 0004:00000150       $pdata$cp1255_wctomb       000000018010f150     * CIL library *:* CIL module *
 0004:0000015c       $pdata$0$cp1255_wctomb     000000018010f15c     * CIL library *:* CIL module *
 0004:00000168       $pdata$2$cp1255_wctomb     000000018010f168     * CIL library *:* CIL module *
 0004:00000174       $pdata$4$cp1255_wctomb     000000018010f174     * CIL library *:* CIL module *
 0004:00000180       $pdata$6$cp1255_wctomb     000000018010f180     * CIL library *:* CIL module *
 0004:0000018c       $pdata$8$cp1255_wctomb     000000018010f18c     * CIL library *:* CIL module *
 0004:00000198       $pdata$10$cp1255_wctomb    000000018010f198     * CIL library *:* CIL module *
 0004:000001a4       $pdata$12$cp1255_wctomb    000000018010f1a4     * CIL library *:* CIL module *
 0004:000001b0       $pdata$14$cp1255_wctomb    000000018010f1b0     * CIL library *:* CIL module *
 0004:000001bc       $pdata$cp1258_mbtowc       000000018010f1bc     * CIL library *:* CIL module *
 0004:000001c8       $pdata$cp1258_wctomb       000000018010f1c8     * CIL library *:* CIL module *
 0004:000001d4       $pdata$0$cp1258_wctomb     000000018010f1d4     * CIL library *:* CIL module *
 0004:000001e0       $pdata$2$cp1258_wctomb     000000018010f1e0     * CIL library *:* CIL module *
 0004:000001ec       $pdata$4$cp1258_wctomb     000000018010f1ec     * CIL library *:* CIL module *
 0004:000001f8       $pdata$6$cp1258_wctomb     000000018010f1f8     * CIL library *:* CIL module *
 0004:00000204       $pdata$8$cp1258_wctomb     000000018010f204     * CIL library *:* CIL module *
 0004:00000210       $pdata$10$cp1258_wctomb    000000018010f210     * CIL library *:* CIL module *
 0004:0000021c       $pdata$tcvn_mbtowc         000000018010f21c     * CIL library *:* CIL module *
 0004:00000228       $pdata$tcvn_wctomb         000000018010f228     * CIL library *:* CIL module *
 0004:00000234       $pdata$jisx0208_wctomb     000000018010f234     * CIL library *:* CIL module *
 0004:00000240       $pdata$0$jisx0208_wctomb   000000018010f240     * CIL library *:* CIL module *
 0004:0000024c       $pdata$2$jisx0208_wctomb   000000018010f24c     * CIL library *:* CIL module *
 0004:00000258       $pdata$3$jisx0208_wctomb   000000018010f258     * CIL library *:* CIL module *
 0004:00000264       $pdata$isoir165_mbtowc     000000018010f264     * CIL library *:* CIL module *
 0004:00000270       $pdata$isoir165_wctomb     000000018010f270     * CIL library *:* CIL module *
 0004:0000027c       $pdata$gbkext_inv_wctomb   000000018010f27c     * CIL library *:* CIL module *
 0004:00000288       $pdata$gbk_mbtowc          000000018010f288     * CIL library *:* CIL module *
 0004:00000294       $pdata$gbk_wctomb          000000018010f294     * CIL library *:* CIL module *
 0004:000002a0       $pdata$johab_hangul_mbtowc 000000018010f2a0     * CIL library *:* CIL module *
 0004:000002ac       $pdata$0$johab_hangul_mbtowc 000000018010f2ac     * CIL library *:* CIL module *
 0004:000002b8       $pdata$2$johab_hangul_mbtowc 000000018010f2b8     * CIL library *:* CIL module *
 0004:000002c4       $pdata$4$johab_hangul_mbtowc 000000018010f2c4     * CIL library *:* CIL module *
 0004:000002d0       $pdata$5$johab_hangul_mbtowc 000000018010f2d0     * CIL library *:* CIL module *
 0004:000002dc       $pdata$johab_hangul_decompose 000000018010f2dc     * CIL library *:* CIL module *
 0004:000002e8       $pdata$euc_jp_mbtowc       000000018010f2e8     * CIL library *:* CIL module *
 0004:000002f4       $pdata$euc_jp_wctomb       000000018010f2f4     * CIL library *:* CIL module *
 0004:00000300       $pdata$sjis_wctomb         000000018010f300     * CIL library *:* CIL module *
 0004:0000030c       $pdata$cp932_wctomb        000000018010f30c     * CIL library *:* CIL module *
 0004:00000318       $pdata$iso2022_jp_mbtowc   000000018010f318     * CIL library *:* CIL module *
 0004:00000324       $pdata$iso2022_jp_wctomb   000000018010f324     * CIL library *:* CIL module *
 0004:00000330       $pdata$0$iso2022_jp_wctomb 000000018010f330     * CIL library *:* CIL module *
 0004:0000033c       $pdata$2$iso2022_jp_wctomb 000000018010f33c     * CIL library *:* CIL module *
 0004:00000348       $pdata$iso2022_jp1_mbtowc  000000018010f348     * CIL library *:* CIL module *
 0004:00000354       $pdata$iso2022_jp1_wctomb  000000018010f354     * CIL library *:* CIL module *
 0004:00000360       $pdata$0$iso2022_jp1_wctomb 000000018010f360     * CIL library *:* CIL module *
 0004:0000036c       $pdata$1$iso2022_jp1_wctomb 000000018010f36c     * CIL library *:* CIL module *
 0004:00000378       $pdata$2$iso2022_jp1_wctomb 000000018010f378     * CIL library *:* CIL module *
 0004:00000384       $pdata$iso2022_jp2_mbtowc  000000018010f384     * CIL library *:* CIL module *
 0004:00000390       $pdata$iso2022_jp2_wctomb  000000018010f390     * CIL library *:* CIL module *
 0004:0000039c       $pdata$0$iso2022_jp2_wctomb 000000018010f39c     * CIL library *:* CIL module *
 0004:000003a8       $pdata$2$iso2022_jp2_wctomb 000000018010f3a8     * CIL library *:* CIL module *
 0004:000003b4       $pdata$3$iso2022_jp2_wctomb 000000018010f3b4     * CIL library *:* CIL module *
 0004:000003c0       $pdata$euc_cn_wctomb       000000018010f3c0     * CIL library *:* CIL module *
 0004:000003cc       $pdata$ces_gbk_wctomb      000000018010f3cc     * CIL library *:* CIL module *
 0004:000003d8       $pdata$cp936_mbtowc        000000018010f3d8     * CIL library *:* CIL module *
 0004:000003e4       $pdata$cp936_wctomb        000000018010f3e4     * CIL library *:* CIL module *
 0004:000003f0       $pdata$gb18030uni_mbtowc   000000018010f3f0     * CIL library *:* CIL module *
 0004:000003fc       $pdata$0$gb18030uni_mbtowc 000000018010f3fc     * CIL library *:* CIL module *
 0004:00000408       $pdata$2$gb18030uni_mbtowc 000000018010f408     * CIL library *:* CIL module *
 0004:00000414       $pdata$3$gb18030uni_mbtowc 000000018010f414     * CIL library *:* CIL module *
 0004:00000420       $pdata$gb18030uni_wctomb   000000018010f420     * CIL library *:* CIL module *
 0004:0000042c       $pdata$0$gb18030uni_wctomb 000000018010f42c     * CIL library *:* CIL module *
 0004:00000438       $pdata$2$gb18030uni_wctomb 000000018010f438     * CIL library *:* CIL module *
 0004:00000444       $pdata$3$gb18030uni_wctomb 000000018010f444     * CIL library *:* CIL module *
 0004:00000450       $pdata$gb18030_mbtowc      000000018010f450     * CIL library *:* CIL module *
 0004:0000045c       $pdata$gb18030_wctomb      000000018010f45c     * CIL library *:* CIL module *
 0004:00000468       $pdata$iso2022_cn_mbtowc   000000018010f468     * CIL library *:* CIL module *
 0004:00000474       $pdata$iso2022_cn_wctomb   000000018010f474     * CIL library *:* CIL module *
 0004:00000480       $pdata$iso2022_cn_ext_mbtowc 000000018010f480     * CIL library *:* CIL module *
 0004:0000048c       $pdata$0$iso2022_cn_ext_mbtowc 000000018010f48c     * CIL library *:* CIL module *
 0004:00000498       $pdata$1$iso2022_cn_ext_mbtowc 000000018010f498     * CIL library *:* CIL module *
 0004:000004a4       $pdata$iso2022_cn_ext_wctomb 000000018010f4a4     * CIL library *:* CIL module *
 0004:000004b0       $pdata$hz_mbtowc           000000018010f4b0     * CIL library *:* CIL module *
 0004:000004bc       $pdata$hz_wctomb           000000018010f4bc     * CIL library *:* CIL module *
 0004:000004c8       $pdata$0$hz_wctomb         000000018010f4c8     * CIL library *:* CIL module *
 0004:000004d4       $pdata$2$hz_wctomb         000000018010f4d4     * CIL library *:* CIL module *
 0004:000004e0       $pdata$euc_tw_mbtowc       000000018010f4e0     * CIL library *:* CIL module *
 0004:000004ec       $pdata$euc_tw_wctomb       000000018010f4ec     * CIL library *:* CIL module *
 0004:000004f8       $pdata$ces_big5_wctomb     000000018010f4f8     * CIL library *:* CIL module *
 0004:00000504       $pdata$cp950ext_wctomb     000000018010f504     * CIL library *:* CIL module *
 0004:00000510       $pdata$cp950_mbtowc        000000018010f510     * CIL library *:* CIL module *
 0004:0000051c       $pdata$3$cp950_mbtowc      000000018010f51c     * CIL library *:* CIL module *
 0004:00000528       $pdata$5$cp950_mbtowc      000000018010f528     * CIL library *:* CIL module *
 0004:00000534       $pdata$cp950_wctomb        000000018010f534     * CIL library *:* CIL module *
 0004:00000540       $pdata$big5hkscs1999_mbtowc 000000018010f540     * CIL library *:* CIL module *
 0004:0000054c       $pdata$big5hkscs1999_wctomb 000000018010f54c     * CIL library *:* CIL module *
 0004:00000558       $pdata$hkscs2001_wctomb    000000018010f558     * CIL library *:* CIL module *
 0004:00000564       $pdata$big5hkscs2001_mbtowc 000000018010f564     * CIL library *:* CIL module *
 0004:00000570       $pdata$big5hkscs2001_wctomb 000000018010f570     * CIL library *:* CIL module *
 0004:0000057c       $pdata$hkscs2004_wctomb    000000018010f57c     * CIL library *:* CIL module *
 0004:00000588       $pdata$big5hkscs2004_mbtowc 000000018010f588     * CIL library *:* CIL module *
 0004:00000594       $pdata$big5hkscs2004_wctomb 000000018010f594     * CIL library *:* CIL module *
 0004:000005a0       $pdata$hkscs2008_wctomb    000000018010f5a0     * CIL library *:* CIL module *
 0004:000005ac       $pdata$big5hkscs2008_mbtowc 000000018010f5ac     * CIL library *:* CIL module *
 0004:000005b8       $pdata$big5hkscs2008_wctomb 000000018010f5b8     * CIL library *:* CIL module *
 0004:000005c4       $pdata$euc_kr_mbtowc       000000018010f5c4     * CIL library *:* CIL module *
 0004:000005d0       $pdata$euc_kr_wctomb       000000018010f5d0     * CIL library *:* CIL module *
 0004:000005dc       $pdata$cp949_mbtowc        000000018010f5dc     * CIL library *:* CIL module *
 0004:000005e8       $pdata$0$cp949_mbtowc      000000018010f5e8     * CIL library *:* CIL module *
 0004:000005f4       $pdata$2$cp949_mbtowc      000000018010f5f4     * CIL library *:* CIL module *
 0004:00000600       $pdata$4$cp949_mbtowc      000000018010f600     * CIL library *:* CIL module *
 0004:0000060c       $pdata$6$cp949_mbtowc      000000018010f60c     * CIL library *:* CIL module *
 0004:00000618       $pdata$8$cp949_mbtowc      000000018010f618     * CIL library *:* CIL module *
 0004:00000624       $pdata$cp949_wctomb        000000018010f624     * CIL library *:* CIL module *
 0004:00000630       $pdata$johab_mbtowc        000000018010f630     * CIL library *:* CIL module *
 0004:0000063c       $pdata$johab_wctomb        000000018010f63c     * CIL library *:* CIL module *
 0004:00000648       $pdata$iso2022_kr_mbtowc   000000018010f648     * CIL library *:* CIL module *
 0004:00000654       $pdata$iso2022_kr_wctomb   000000018010f654     * CIL library *:* CIL module *
 0004:00000660       $pdata$dec_kanji_wctomb    000000018010f660     * CIL library *:* CIL module *
 0004:0000066c       $pdata$dec_hanyu_mbtowc    000000018010f66c     * CIL library *:* CIL module *
 0004:00000678       $pdata$dec_hanyu_wctomb    000000018010f678     * CIL library *:* CIL module *
 0004:00000684       $pdata$euc_jisx0213_mbtowc 000000018010f684     * CIL library *:* CIL module *
 0004:00000690       $pdata$euc_jisx0213_wctomb 000000018010f690     * CIL library *:* CIL module *
 0004:0000069c       $pdata$shift_jisx0213_mbtowc 000000018010f69c     * CIL library *:* CIL module *
 0004:000006a8       $pdata$shift_jisx0213_wctomb 000000018010f6a8     * CIL library *:* CIL module *
 0004:000006b4       $pdata$iso2022_jp3_mbtowc  000000018010f6b4     * CIL library *:* CIL module *
 0004:000006c0       $pdata$0$iso2022_jp3_mbtowc 000000018010f6c0     * CIL library *:* CIL module *
 0004:000006cc       $pdata$1$iso2022_jp3_mbtowc 000000018010f6cc     * CIL library *:* CIL module *
 0004:000006d8       $pdata$2$iso2022_jp3_mbtowc 000000018010f6d8     * CIL library *:* CIL module *
 0004:000006e4       $pdata$3$iso2022_jp3_mbtowc 000000018010f6e4     * CIL library *:* CIL module *
 0004:000006f0       $pdata$iso2022_jp3_wctomb  000000018010f6f0     * CIL library *:* CIL module *
 0004:000006fc       $pdata$iso2022_jp3_reset   000000018010f6fc     * CIL library *:* CIL module *
 0004:00000708       $pdata$big5_2003_mbtowc    000000018010f708     * CIL library *:* CIL module *
 0004:00000714       $pdata$big5_2003_wctomb    000000018010f714     * CIL library *:* CIL module *
 0004:00000720       $pdata$unicode_transliterate 000000018010f720     * CIL library *:* CIL module *
 0004:0000072c       $pdata$uc_to_mb_write_replacement 000000018010f72c     * CIL library *:* CIL module *
 0004:00000738       $pdata$mb_to_uc_write_replacement 000000018010f738     * CIL library *:* CIL module *
 0004:00000744       $pdata$4$mb_to_uc_write_replacement 000000018010f744     * CIL library *:* CIL module *
 0004:00000750       $pdata$5$mb_to_uc_write_replacement 000000018010f750     * CIL library *:* CIL module *
 0004:0000075c       $pdata$6$mb_to_uc_write_replacement 000000018010f75c     * CIL library *:* CIL module *
 0004:00000768       $pdata$unicode_loop_convert 000000018010f768     * CIL library *:* CIL module *
 0004:00000774       $pdata$unicode_loop_reset  000000018010f774     * CIL library *:* CIL module *
 0004:00000780       $pdata$4$unicode_loop_reset 000000018010f780     * CIL library *:* CIL module *
 0004:0000078c       $pdata$6$unicode_loop_reset 000000018010f78c     * CIL library *:* CIL module *
 0004:00000798       $pdata$7$unicode_loop_reset 000000018010f798     * CIL library *:* CIL module *
 0004:000007a4       $pdata$8$unicode_loop_reset 000000018010f7a4     * CIL library *:* CIL module *
 0004:000007b0       $pdata$libiconv_open       000000018010f7b0     * CIL library *:* CIL module *
 0004:000007bc       $pdata$load_exe_hook       000000018010f7bc     * CIL library *:* CIL module *
 0004:000007d4       $pdata$??0bad_alloc@std@@QEAA@AEBV01@@Z 000000018010f7d4     libcpmt:xthrow.obj
 0004:000007e0       $pdata$??_Gbad_alloc@std@@UEAAPEAXI@Z 000000018010f7e0     libcpmt:xthrow.obj
 0004:00000804       $pdata$__doserrno          000000018010f804     LIBCMT:dosmap.obj
 0004:00000810       $pdata$_dosmaperr          000000018010f810     LIBCMT:dosmap.obj
 0004:0000081c       $pdata$_errno              000000018010f81c     LIBCMT:dosmap.obj
 0004:00000828       $pdata$__onexitinit        000000018010f828     LIBCMT:onexit.obj
 0004:00000834       $pdata$_onexit             000000018010f834     LIBCMT:onexit.obj
 0004:00000840       $pdata$atexit              000000018010f840     LIBCMT:onexit.obj
 0004:0000084c       $pdata$??2@YAPEAX_K@Z      000000018010f84c     LIBCMT:new.obj
 0004:00000858       $pdata$abort               000000018010f858     LIBCMT:abort.obj
 0004:00000864       $pdata$free                000000018010f864     LIBCMT:free.obj
 0004:00000870       $pdata$malloc              000000018010f870     LIBCMT:malloc.obj
 0004:0000087c       $pdata$??0_LocaleUpdate@@QEAA@PEAUlocaleinfo_struct@@@Z 000000018010f87c     LIBCMT:stricmp.obj
 0004:00000888       $pdata$_stricmp            000000018010f888     LIBCMT:stricmp.obj
 0004:00000894       $pdata$_stricmp_l          000000018010f894     LIBCMT:stricmp.obj
 0004:000008a0       $pdata$_CRT_INIT           000000018010f8a0     LIBCMT:dllcrt0.obj
 0004:000008ac       $pdata$_DllMainCRTStartup  000000018010f8ac     LIBCMT:dllcrt0.obj
 0004:000008b8       $pdata$__DllMainCRTStartup 000000018010f8b8     LIBCMT:dllcrt0.obj
 0004:000008d0       $pdata$_CxxThrowException  000000018010f8d0     LIBCMT:throw.obj
 0004:000008dc       $pdata$??_Gtype_info@@UEAAPEAXI@Z 000000018010f8dc     LIBCMT:typinfo.obj
 0004:000008e8       $pdata$??0exception@std@@QEAA@AEBV01@@Z 000000018010f8e8     LIBCMT:stdexcpt.obj
 0004:000008f4       $pdata$??4exception@std@@QEAAAEAV01@AEBV01@@Z 000000018010f8f4     LIBCMT:stdexcpt.obj
 0004:00000900       $pdata$??_Gexception@std@@UEAAPEAXI@Z 000000018010f900     LIBCMT:stdexcpt.obj
 0004:0000090c       $pdata$?_Copy_str@exception@std@@AEAAXPEBD@Z 000000018010f90c     LIBCMT:stdexcpt.obj
 0004:00000918       $pdata$?_Tidy@exception@std@@AEAAXXZ 000000018010f918     LIBCMT:stdexcpt.obj
 0004:00000924       $pdata$__raise_securityfailure 000000018010f924     LIBCMT:gs_report.obj
 0004:00000930       $pdata$__report_gsfailure  000000018010f930     LIBCMT:gs_report.obj
 0004:0000093c       $pdata$__isa_available_init 000000018010f93c     LIBCMT:cpu_disp.obj
 0004:00000948       $pdata$_call_reportfault   000000018010f948     LIBCMT:invarg.obj
 0004:00000954       $pdata$_invalid_parameter  000000018010f954     LIBCMT:invarg.obj
 0004:00000960       $pdata$_invalid_parameter_noinfo 000000018010f960     LIBCMT:invarg.obj
 0004:0000096c       $pdata$_invoke_watson      000000018010f96c     LIBCMT:invarg.obj
 0004:00000978       $pdata$_freefls            000000018010f978     LIBCMT:tidtable.obj
 0004:00000984       $pdata$_freeptd            000000018010f984     LIBCMT:tidtable.obj
 0004:00000990       $pdata$_getptd             000000018010f990     LIBCMT:tidtable.obj
 0004:0000099c       $pdata$_getptd_noexit      000000018010f99c     LIBCMT:tidtable.obj
 0004:000009a8       $pdata$_initptd            000000018010f9a8     LIBCMT:tidtable.obj
 0004:000009b4       $pdata$_mtinit             000000018010f9b4     LIBCMT:tidtable.obj
 0004:000009c0       $pdata$_mtterm             000000018010f9c0     LIBCMT:tidtable.obj
 0004:000009cc       $pdata$wcscat_s            000000018010f9cc     LIBCMT:wcscat_s.obj
 0004:000009d8       $pdata$wcscpy_s            000000018010f9d8     LIBCMT:wcscpy_s.obj
 0004:000009e4       $pdata$__crtCorExitProcess 000000018010f9e4     LIBCMT:crt0dat.obj
 0004:000009f0       $pdata$__crtExitProcess    000000018010f9f0     LIBCMT:crt0dat.obj
 0004:000009fc       $pdata$__freeCrtMemory     000000018010f9fc     LIBCMT:crt0dat.obj
 0004:00000a08       $pdata$_amsg_exit          000000018010fa08     LIBCMT:crt0dat.obj
 0004:00000a14       $pdata$_cinit              000000018010fa14     LIBCMT:crt0dat.obj
 0004:00000a20       $pdata$_init_pointers      000000018010fa20     LIBCMT:crt0dat.obj
 0004:00000a2c       $pdata$_initterm           000000018010fa2c     LIBCMT:crt0dat.obj
 0004:00000a38       $pdata$_initterm_e         000000018010fa38     LIBCMT:crt0dat.obj
 0004:00000a44       $pdata$doexit              000000018010fa44     LIBCMT:crt0dat.obj
 0004:00000a50       $pdata$_set_error_mode     000000018010fa50     LIBCMT:errmode.obj
 0004:00000a5c       $pdata$__initstdio         000000018010fa5c     LIBCMT:_file.obj
 0004:00000a68       $pdata$__endstdio          000000018010fa68     LIBCMT:_file.obj
 0004:00000a74       $pdata$_lock_file          000000018010fa74     LIBCMT:_file.obj
 0004:00000a80       $pdata$_lock_file2         000000018010fa80     LIBCMT:_file.obj
 0004:00000a8c       $pdata$_fflush_nolock      000000018010fa8c     LIBCMT:fflush.obj
 0004:00000a98       $pdata$_flush              000000018010fa98     LIBCMT:fflush.obj
 0004:00000aa4       $pdata$flsall              000000018010faa4     LIBCMT:fflush.obj
 0004:00000ab0       $pdata$raise               000000018010fab0     LIBCMT:winsig.obj
 0004:00000abc       $pdata$__crtMessageBoxW    000000018010fabc     LIBCMT:crtmboxw.obj
 0004:00000ac8       $pdata$__GSHandlerCheck    000000018010fac8     LIBCMT:gshandler.obj
 0004:00000ad4       $pdata$__GSHandlerCheckCommon 000000018010fad4     LIBCMT:gshandler.obj
 0004:00000ae0       $pdata$_FF_MSGBANNER       000000018010fae0     LIBCMT:crt0msg.obj
 0004:00000aec       $pdata$_NMSG_WRITE         000000018010faec     LIBCMT:crt0msg.obj
 0004:00000af8       $pdata$_msize              000000018010faf8     LIBCMT:msize.obj
 0004:00000b04       $pdata$_calloc_crt         000000018010fb04     LIBCMT:crtheap.obj
 0004:00000b10       $pdata$_malloc_crt         000000018010fb10     LIBCMT:crtheap.obj
 0004:00000b1c       $pdata$_realloc_crt        000000018010fb1c     LIBCMT:crtheap.obj
 0004:00000b28       $pdata$__C_specific_handler 000000018010fb28     LIBCMT:chandler.obj
 0004:00000b34       $pdata$_callnewh           000000018010fb34     LIBCMT:handler.obj
 0004:00000b40       $pdata$_heap_init          000000018010fb40     LIBCMT:heapinit.obj
 0004:00000b4c       $pdata$__freetlocinfo      000000018010fb4c     LIBCMT:localref.obj
 0004:00000b58       $pdata$__updatetlocinfo    000000018010fb58     LIBCMT:localref.obj
 0004:00000b64       $pdata$_updatetlocinfoEx_nolock 000000018010fb64     LIBCMT:localref.obj
 0004:00000b70       $pdata$__initmbctable      000000018010fb70     LIBCMT:mbctype.obj
 0004:00000b7c       $pdata$?getSystemCP@@YAHH@Z 000000018010fb7c     LIBCMT:mbctype.obj
 0004:00000b88       $pdata$?setSBCS@@YAXPEAUthreadmbcinfostruct@@@Z 000000018010fb88     LIBCMT:mbctype.obj
 0004:00000b94       $pdata$?setSBUpLow@@YAXPEAUthreadmbcinfostruct@@@Z 000000018010fb94     LIBCMT:mbctype.obj
 0004:00000ba0       $pdata$__updatetmbcinfo    000000018010fba0     LIBCMT:mbctype.obj
 0004:00000bac       $pdata$_setmbcp            000000018010fbac     LIBCMT:mbctype.obj
 0004:00000bb8       $pdata$_setmbcp_nolock     000000018010fbb8     LIBCMT:mbctype.obj
 0004:00000bc4       $pdata$_tolower_l          000000018010fbc4     LIBCMT:tolower.obj
 0004:00000bd0       $pdata$_locterm            000000018010fbd0     LIBCMT:wsetloca.obj
 0004:00000bdc       $pdata$_XcptFilter         000000018010fbdc     LIBCMT:winxfltr.obj
 0004:00000be8       $pdata$_ioinit             000000018010fbe8     LIBCMT:ioinit.obj
 0004:00000bf4       $pdata$_ioterm             000000018010fbf4     LIBCMT:ioinit.obj
 0004:00000c00       $pdata$_setargv            000000018010fc00     LIBCMT:stdargv.obj
 0004:00000c0c       $pdata$parse_cmdline       000000018010fc0c     LIBCMT:stdargv.obj
 0004:00000c18       $pdata$_setenvp            000000018010fc18     LIBCMT:stdenvp.obj
 0004:00000c24       $pdata$__security_init_cookie 000000018010fc24     LIBCMT:gs_support.obj
 0004:00000c30       $pdata$__crtGetEnvironmentStringsA 000000018010fc30     LIBCMT:a_env.obj
 0004:00000c3c       $pdata$__crtCaptureCurrentContext 000000018010fc3c     LIBCMT:winapisupp.obj
 0004:00000c48       $pdata$__crtCapturePreviousContext 000000018010fc48     LIBCMT:winapisupp.obj
 0004:00000c54       $pdata$__crtInitializeCriticalSectionEx 000000018010fc54     LIBCMT:winapisupp.obj
 0004:00000c60       $pdata$__crtIsPackagedApp  000000018010fc60     LIBCMT:winapisupp.obj
 0004:00000c6c       $pdata$__crtLoadWinApiPointers 000000018010fc6c     LIBCMT:winapisupp.obj
 0004:00000c78       $pdata$__crtTerminateProcess 000000018010fc78     LIBCMT:winapisupp.obj
 0004:00000c84       $pdata$__crtUnhandledException 000000018010fc84     LIBCMT:winapisupp.obj
 0004:00000c90       $pdata$_RTC_Initialize     000000018010fc90     LIBCMT:initsect.obj
 0004:00000c9c       $pdata$_RTC_Terminate      000000018010fc9c     LIBCMT:initsect.obj
 0004:00000ca8       $pdata$__DestructExceptionObject 000000018010fca8     LIBCMT:frame.obj
 0004:00000cb4       $pdata$?terminate@@YAXXZ   000000018010fcb4     LIBCMT:hooks.obj
 0004:00000cc0       $pdata$_initp_eh_hooks     000000018010fcc0     LIBCMT:hooks.obj
 0004:00000cd8       $pdata$?_Type_info_dtor@type_info@@CAXPEAV1@@Z 000000018010fcd8     LIBCMT:typname.obj
 0004:00000ce4       $pdata$_cfltcvt            000000018010fce4     LIBCMT:cvt.obj
 0004:00000cf0       $pdata$_cfltcvt_l          000000018010fcf0     LIBCMT:cvt.obj
 0004:00000cfc       $pdata$_cftoa_l            000000018010fcfc     LIBCMT:cvt.obj
 0004:00000d08       $pdata$_cftoe2_l           000000018010fd08     LIBCMT:cvt.obj
 0004:00000d14       $pdata$_cftoe_l            000000018010fd14     LIBCMT:cvt.obj
 0004:00000d20       $pdata$_cftof2_l           000000018010fd20     LIBCMT:cvt.obj
 0004:00000d2c       $pdata$_cftof_l            000000018010fd2c     LIBCMT:cvt.obj
 0004:00000d38       $pdata$_cftog_l            000000018010fd38     LIBCMT:cvt.obj
 0004:00000d44       $pdata$_cropzeros_l        000000018010fd44     LIBCMT:cvt.obj
 0004:00000d50       $pdata$_fassign_l          000000018010fd50     LIBCMT:cvt.obj
 0004:00000d5c       $pdata$_forcdecpt_l        000000018010fd5c     LIBCMT:cvt.obj
 0004:00000d68       $pdata$_initp_misc_cfltcvt_tab 000000018010fd68     LIBCMT:cmiscdat.obj
 0004:00000d74       $pdata$strcpy_s            000000018010fd74     LIBCMT:strcpy_s.obj
 0004:00000d8c       $pdata$_lock               000000018010fd8c     LIBCMT:mlock.obj
 0004:00000d98       $pdata$_mtdeletelocks      000000018010fd98     LIBCMT:mlock.obj
 0004:00000da4       $pdata$_mtinitlocknum      000000018010fda4     LIBCMT:mlock.obj
 0004:00000db0       $pdata$_mtinitlocks        000000018010fdb0     LIBCMT:mlock.obj
 0004:00000dbc       $pdata$_IsNonwritableInCurrentImage 000000018010fdbc     LIBCMT:pesect.obj
 0004:00000dc8       $pdata$_fcloseall          000000018010fdc8     LIBCMT:closeall.obj
 0004:00000dd4       $pdata$_fileno             000000018010fdd4     LIBCMT:fileno.obj
 0004:00000de0       $pdata$_commit             000000018010fde0     LIBCMT:commit.obj
 0004:00000dec       $pdata$_write              000000018010fdec     LIBCMT:write.obj
 0004:00000df8       $pdata$_write_nolock       000000018010fdf8     LIBCMT:write.obj
 0004:00000e04       $pdata$_freebuf            000000018010fe04     LIBCMT:_freebuf.obj
 0004:00000e10       $pdata$wcsncpy_s           000000018010fe10     LIBCMT:wcsncpy_s.obj
 0004:00000e1c       $pdata$realloc             000000018010fe1c     LIBCMT:realloc.obj
 0004:00000e28       $pdata$_calloc_impl        000000018010fe28     LIBCMT:calloc_impl.obj
 0004:00000e64       $pdata$GetTableIndexFromLocaleName 000000018010fe64     LIBCMT:winapinls.obj
 0004:00000e70       $pdata$__crtDownlevelLocaleNameToLCID 000000018010fe70     LIBCMT:winapinls.obj
 0004:00000e7c       $pdata$__crtLCMapStringEx  000000018010fe7c     LIBCMT:winapinls.obj
 0004:00000e94       $pdata$__free_lconv_mon    000000018010fe94     LIBCMT:initmon.obj
 0004:00000ea0       $pdata$__free_lconv_num    000000018010fea0     LIBCMT:initnum.obj
 0004:00000eac       $pdata$__free_lc_time      000000018010feac     LIBCMT:inittime.obj
 0004:00000eb8       $pdata$?__crtLCMapStringA_stat@@YAHPEAUlocaleinfo_struct@@PEB_WKPEBDHPEADHHH@Z 000000018010feb8     LIBCMT:a_map.obj
 0004:00000ec4       $pdata$__crtLCMapStringA   000000018010fec4     LIBCMT:a_map.obj
 0004:00000ed0       $pdata$?__crtGetStringTypeA_stat@@YAHPEAUlocaleinfo_struct@@KPEBDHPEAGHH@Z 000000018010fed0     LIBCMT:a_str.obj
 0004:00000edc       $pdata$__crtGetStringTypeA 000000018010fedc     LIBCMT:a_str.obj
 0004:00000ee8       $pdata$_isctype_l          000000018010fee8     LIBCMT:isctype.obj
 0004:00000ef4       $pdata$_isleadbyte_l       000000018010fef4     LIBCMT:_wctype.obj
 0004:00000f00       $pdata$isleadbyte          000000018010ff00     LIBCMT:_wctype.obj
 0004:00000f18       $pdata$?x_ismbbtype_l@@YAHPEAUlocaleinfo_struct@@IHH@Z 000000018010ff18     LIBCMT:ismbbyte.obj
 0004:00000f30       $pdata$isdigit             000000018010ff30     LIBCMT:_ctype.obj
 0004:00000f3c       $pdata$strrchr             000000018010ff3c     LIBCMT:strrchr.obj
 0004:00000f48       $pdata$_fptostr            000000018010ff48     LIBCMT:_fptostr.obj
 0004:00000f54       $pdata$__crt_atoflt_l      000000018010ff54     LIBCMT:atodbl.obj
 0004:00000f60       $pdata$_atodbl_l           000000018010ff60     LIBCMT:atodbl.obj
 0004:00000f6c       $pdata$__dtold             000000018010ff6c     LIBCMT:cfout.obj
 0004:00000f78       $pdata$_fltout2            000000018010ff78     LIBCMT:cfout.obj
 0004:00000f84       $pdata$_isatty             000000018010ff84     LIBCMT:isatty.obj
 0004:00000f90       $pdata$_fclose_nolock      000000018010ff90     LIBCMT:fclose.obj
 0004:00000f9c       $pdata$fclose              000000018010ff9c     LIBCMT:fclose.obj
 0004:00000fa8       $pdata$__lock_fhandle      000000018010ffa8     LIBCMT:osfinfo.obj
 0004:00000fb4       $pdata$_free_osfhnd        000000018010ffb4     LIBCMT:osfinfo.obj
 0004:00000fc0       $pdata$_get_osfhandle      000000018010ffc0     LIBCMT:osfinfo.obj
 0004:00000fcc       $pdata$_lseeki64_nolock    000000018010ffcc     LIBCMT:lseeki64.obj
 0004:00000fd8       $pdata$_mbtowc_l           000000018010ffd8     LIBCMT:mbtowc.obj
 0004:00000fe4       $pdata$_putwch_nolock      000000018010ffe4     LIBCMT:putwch.obj
 0004:00000ffc       $pdata$_ld12tod            000000018010fffc     LIBCMT:intrncvt.obj
 0004:00001008       $pdata$_ld12tof            0000000180110008     LIBCMT:intrncvt.obj
 0004:00001014       $pdata$__strgtold12_l      0000000180110014     LIBCMT:strgtold.obj
 0004:00001020       $pdata$$I10_OUTPUT         0000000180110020     LIBCMT:x10fout.obj
 0004:0000102c       $pdata$_close              000000018011002c     LIBCMT:close.obj
 0004:00001038       $pdata$_close_nolock       0000000180110038     LIBCMT:close.obj
 0004:00001044       $pdata$__termconout        0000000180110044     LIBCMT:initcon.obj
 0004:00001050       $pdata$__initconout        0000000180110050     LIBCMT:initcon.obj
 0004:0000105c       $pdata$__mtold12           000000018011005c     LIBCMT:mantold.obj
 0004:00001068       $pdata$__delayLoadHelper2  0000000180110068     DelayImp:delayhlp.obj
 0004:00001074       $pdata$_onexit$fin$0       0000000180110074     LIBCMT:onexit.obj
 0004:00001080       $pdata$_CRT_INIT$fin$0     0000000180110080     LIBCMT:dllcrt0.obj
 0004:0000108c       $pdata$__DllMainCRTStartup$filt$0 000000018011008c     LIBCMT:dllcrt0.obj
 0004:00001098       $pdata$_initptd$fin$1      0000000180110098     LIBCMT:tidtable.obj
 0004:00001098       $pdata$_freefls$fin$1      0000000180110098     LIBCMT:tidtable.obj
 0004:000010a4       $pdata$_initptd$fin$0      00000001801100a4     LIBCMT:tidtable.obj
 0004:000010a4       $pdata$_freefls$fin$0      00000001801100a4     LIBCMT:tidtable.obj
 0004:000010b0       $pdata$doexit$fin$0        00000001801100b0     LIBCMT:crt0dat.obj
 0004:000010bc       $pdata$flsall$fin$0        00000001801100bc     LIBCMT:fflush.obj
 0004:000010c8       $pdata$flsall$fin$1        00000001801100c8     LIBCMT:fflush.obj
 0004:000010d4       $pdata$raise$fin$0         00000001801100d4     LIBCMT:winsig.obj
 0004:000010e0       $pdata$__updatetmbcinfo$fin$0 00000001801100e0     LIBCMT:mbctype.obj
 0004:000010e0       $pdata$_setmbcp$fin$0      00000001801100e0     LIBCMT:mbctype.obj
 0004:000010ec       $pdata$__updatetlocinfo$fin$0 00000001801100ec     LIBCMT:wsetloca.obj
 0004:000010ec       $pdata$_locterm$fin$0      00000001801100ec     LIBCMT:wsetloca.obj
 0004:000010f8       $pdata$_ioinit$fin$0       00000001801100f8     LIBCMT:ioinit.obj
 0004:00001104       $pdata$__DestructExceptionObject$filt$0 0000000180110104     LIBCMT:frame.obj
 0004:00001110       $pdata$?fin$0@?0??_Type_info_dtor@type_info@@CAXPEAV1@@Z@4HA 0000000180110110     LIBCMT:typname.obj
 0004:0000111c       $pdata$_mtinitlocknum$fin$0 000000018011011c     LIBCMT:mlock.obj
 0004:00001128       $pdata$_IsNonwritableInCurrentImage$filt$0 0000000180110128     LIBCMT:pesect.obj
 0004:00001134       $pdata$_fcloseall$fin$0    0000000180110134     LIBCMT:closeall.obj
 0004:00001140       $pdata$_close$fin$0        0000000180110140     LIBCMT:commit.obj
 0004:00001140       $pdata$_commit$fin$0       0000000180110140     LIBCMT:commit.obj
 0004:0000114c       $pdata$_write$fin$0        000000018011014c     LIBCMT:write.obj
 0004:00001158       $pdata$fclose$fin$0        0000000180110158     LIBCMT:fclose.obj
 0004:00001164       $pdata$__lock_fhandle$fin$0 0000000180110164     LIBCMT:osfinfo.obj
 0005:00000060       $R000000                   0000000180111060     * linker generated manifest res *

 Exports

  ordinal    name

        1    _register_libiconv_
